(dp1
S'output'
p2
S"<type 'exceptions.KeyError'> 3"
p3
sS'layer'
p4
S'C:\\Users\\Miguel\\Documents\\4 periodo\\IBD\\web2py_win\\web2py\\applications\\evento\\controllers/default.py'
p5
sS'code'
p6
S'<code object <module> at 03B00698, file "C:\\Users\\Miguel\\Documents\\4 periodo\\IBD\\web2py_win\\web2py\\applications\\evento\\controllers/default.py", line 3>'
p7
sS'snapshot'
p8
(dp9
S'exception'
p10
(dp11
S'__getslice__'
p12
S"<method-wrapper '__getslice__' of exceptions.KeyError object>"
p13
sS'__str__'
p14
S"<method-wrapper '__str__' of exceptions.KeyError object>"
p15
sS'__reduce__'
p16
S'<built-in method __reduce__ of exceptions.KeyError object>'
p17
sS'__dict__'
p18
S'{}'
p19
sS'message'
p20
S'3'
sS'__sizeof__'
p21
S'<built-in method __sizeof__ of exceptions.KeyError object>'
p22
sS'__init__'
p23
S"<method-wrapper '__init__' of exceptions.KeyError object>"
p24
sS'__setattr__'
p25
S"<method-wrapper '__setattr__' of exceptions.KeyError object>"
p26
sS'__reduce_ex__'
p27
S'<built-in method __reduce_ex__ of exceptions.KeyError object>'
p28
sS'__new__'
p29
S'<built-in method __new__ of type object>'
p30
sS'__format__'
p31
S'<built-in method __format__ of exceptions.KeyError object>'
p32
sS'__class__'
p33
S"<type 'exceptions.KeyError'>"
p34
sS'__doc__'
p35
S"'Mapping key not found.'"
p36
sS'__getitem__'
p37
S"<method-wrapper '__getitem__' of exceptions.KeyError object>"
p38
sS'__setstate__'
p39
S'<built-in method __setstate__ of exceptions.KeyError object>'
p40
sS'__getattribute__'
p41
S"<method-wrapper '__getattribute__' of exceptions.KeyError object>"
p42
sS'args'
p43
S'(3,)'
p44
sS'__subclasshook__'
p45
S'<built-in method __subclasshook__ of type object>'
p46
sS'__unicode__'
p47
S'<built-in method __unicode__ of exceptions.KeyError object>'
p48
sS'__delattr__'
p49
S"<method-wrapper '__delattr__' of exceptions.KeyError object>"
p50
sS'__repr__'
p51
S"<method-wrapper '__repr__' of exceptions.KeyError object>"
p52
sS'__hash__'
p53
S"<method-wrapper '__hash__' of exceptions.KeyError object>"
p54
ssS'evalue'
p55
S'3'
sS'request'
p56
cgluon.html
XML_unpickle
p57
(S's!`\x00\x00<div><table><tr><td style="font-weight:bold;vertical-align:top;">ajax</td><td style="vertical-align:top;">:</td><td><div>False</div></td></tr><tr><td style="font-weight:bold;vertical-align:top;">application</td><td style="vertical-align:top;">:</td><td><div>evento</div></td></tr><tr><td style="font-weight:bold;vertical-align:top;">args</td><td style="vertical-align:top;">:</td><td><div><table></table></div></td></tr><tr><td style="font-weight:bold;vertical-align:top;">cid</td><td style="vertical-align:top;">:</td><td><div>None</div></td></tr><tr><td style="font-weight:bold;vertical-align:top;">client</td><td style="vertical-align:top;">:</td><td><div>127.0.0.1</div></td></tr><tr><td style="font-weight:bold;vertical-align:top;">controller</td><td style="vertical-align:top;">:</td><td><div>default</div></td></tr><tr><td style="font-weight:bold;vertical-align:top;">cookies</td><td style="vertical-align:top;">:</td><td><div><table><tr><td style="font-weight:bold;vertical-align:top;">session_id_admin</td><td style="vertical-align:top;">:</td><td><div>127.0.0.1-519603ea-1636-482a-8dab-d24d6bf88361<table><tr><td style="font-weight:bold;vertical-align:top;">comment</td><td style="vertical-align:top;">:</td><td><div></div></td></tr><tr><td style="font-weight:bold;vertical-align:top;">domain</td><td style="vertical-align:top;">:</td><td><div></div></td></tr><tr><td style="font-weight:bold;vertical-align:top;">expires</td><td style="vertical-align:top;">:</td><td><div></div></td></tr><tr><td style="font-weight:bold;vertical-align:top;">httponly</td><td style="vertical-align:top;">:</td><td><div></div></td></tr><tr><td style="font-weight:bold;vertical-align:top;">max-age</td><td style="vertical-align:top;">:</td><td><div></div></td></tr><tr><td style="font-weight:bold;vertical-align:top;">path</td><td style="vertical-align:top;">:</td><td><div></div></td></tr><tr><td style="font-weight:bold;vertical-align:top;">samesite</td><td style="vertical-align:top;">:</td><td><div></div></td></tr><tr><td style="font-weight:bold;vertical-align:top;">secure</td><td style="vertical-align:top;">:</td><td><div></div></td></tr><tr><td style="font-weight:bold;vertical-align:top;">version</td><td style="vertical-align:top;">:</td><td><div></div></td></tr></table></div></td></tr><tr><td style="font-weight:bold;vertical-align:top;">session_id_evento</td><td style="vertical-align:top;">:</td><td><div>127.0.0.1-4fe48b49-7aba-4f92-aa09-be6b998244d8<table><tr><td style="font-weight:bold;vertical-align:top;">comment</td><td style="vertical-align:top;">:</td><td><div></div></td></tr><tr><td style="font-weight:bold;vertical-align:top;">domain</td><td style="vertical-align:top;">:</td><td><div></div></td></tr><tr><td style="font-weight:bold;vertical-align:top;">expires</td><td style="vertical-align:top;">:</td><td><div></div></td></tr><tr><td style="font-weight:bold;vertical-align:top;">httponly</td><td style="vertical-align:top;">:</td><td><div></div></td></tr><tr><td style="font-weight:bold;vertical-align:top;">max-age</td><td style="vertical-align:top;">:</td><td><div></div></td></tr><tr><td style="font-weight:bold;vertical-align:top;">path</td><td style="vertical-align:top;">:</td><td><div></div></td></tr><tr><td style="font-weight:bold;vertical-align:top;">samesite</td><td style="vertical-align:top;">:</td><td><div></div></td></tr><tr><td style="font-weight:bold;vertical-align:top;">secure</td><td style="vertical-align:top;">:</td><td><div></div></td></tr><tr><td style="font-weight:bold;vertical-align:top;">version</td><td style="vertical-align:top;">:</td><td><div></div></td></tr></table></div></td></tr></table></div></td></tr><tr><td style="font-weight:bold;vertical-align:top;">env</td><td style="vertical-align:top;">:</td><td><div><table><tr><td style="font-weight:bold;vertical-align:top;">HTTP_ACCEPT</td><td style="vertical-align:top;">:</td><td><div>text/html,application/xhtml+xml,application/xml;q=0.9,image/webp,image/apng,*/*;q=0.8,application/signed-exchange;v=b3;q=0.9</div></td></tr><tr><td style="font-weight:bold;vertical-align:top;">HTTP_ACCEPT_ENCODING</td><td style="vertical-align:top;">:</td><td><div>gzip, deflate, br</div></td></tr><tr><td style="font-weight:bold;vertical-align:top;">HTTP_ACCEPT_LANGUAGE</td><td style="vertical-align:top;">:</td><td><div>en-US,en;q=0.9,pt;q=0.8</div></td></tr><tr><td style="font-weight:bold;vertical-align:top;">HTTP_CACHE_CONTROL</td><td style="vertical-align:top;">:</td><td><div>max-age=0</div></td></tr><tr><td style="font-weight:bold;vertical-align:top;">HTTP_CONNECTION</td><td style="vertical-align:top;">:</td><td><div>keep-alive</div></td></tr><tr><td style="font-weight:bold;vertical-align:top;">HTTP_COOKIE</td><td style="vertical-align:top;">:</td><td><div>session_id_admin=127.0.0.1-519603ea-1636-482a-8dab-d24d6bf88361; session_id_evento=127.0.0.1-4fe48b49-7aba-4f92-aa09-be6b998244d8</div></td></tr><tr><td style="font-weight:bold;vertical-align:top;">HTTP_HOST</td><td style="vertical-align:top;">:</td><td><div>127.0.0.1:8000</div></td></tr><tr><td style="font-weight:bold;vertical-align:top;">HTTP_REFERER</td><td style="vertical-align:top;">:</td><td><div>http://127.0.0.1:8000/user/not_authorized</div></td></tr><tr><td style="font-weight:bold;vertical-align:top;">HTTP_SEC_FETCH_MODE</td><td style="vertical-align:top;">:</td><td><div>navigate</div></td></tr><tr><td style="font-weight:bold;vertical-align:top;">HTTP_SEC_FETCH_SITE</td><td style="vertical-align:top;">:</td><td><div>same-origin</div></td></tr><tr><td style="font-weight:bold;vertical-align:top;">HTTP_SEC_FETCH_USER</td><td style="vertical-align:top;">:</td><td><div>?1</div></td></tr><tr><td style="font-weight:bold;vertical-align:top;">HTTP_UPGRADE_INSECURE_REQUESTS</td><td style="vertical-align:top;">:</td><td><div>1</div></td></tr><tr><td style="font-weight:bold;vertical-align:top;">HTTP_USER_AGENT</td><td style="vertical-align:top;">:</td><td><div>Mozilla/5.0 (Windows NT 10.0; Win64; x64) AppleWebKit/537.36 (KHTML, like Gecko) Chrome/79.0.3945.79 Safari/537.36</div></td></tr><tr><td style="font-weight:bold;vertical-align:top;">PATH_INFO</td><td style="vertical-align:top;">:</td><td><div>/meus_eventos</div></td></tr><tr><td style="font-weight:bold;vertical-align:top;">QUERY_STRING</td><td style="vertical-align:top;">:</td><td><div></div></td></tr><tr><td style="font-weight:bold;vertical-align:top;">REMOTE_ADDR</td><td style="vertical-align:top;">:</td><td><div>127.0.0.1</div></td></tr><tr><td style="font-weight:bold;vertical-align:top;">REMOTE_PORT</td><td style="vertical-align:top;">:</td><td><div>51324</div></td></tr><tr><td style="font-weight:bold;vertical-align:top;">REQUEST_METHOD</td><td style="vertical-align:top;">:</td><td><div>GET</div></td></tr><tr><td style="font-weight:bold;vertical-align:top;">SCRIPT_NAME</td><td style="vertical-align:top;">:</td><td><div></div></td></tr><tr><td style="font-weight:bold;vertical-align:top;">SERVER_NAME</td><td style="vertical-align:top;">:</td><td><div>DESKTOP-COI0HOF</div></td></tr><tr><td style="font-weight:bold;vertical-align:top;">SERVER_PORT</td><td style="vertical-align:top;">:</td><td><div>8000</div></td></tr><tr><td style="font-weight:bold;vertical-align:top;">SERVER_PROTOCOL</td><td style="vertical-align:top;">:</td><td><div>HTTP/1.1</div></td></tr><tr><td style="font-weight:bold;vertical-align:top;">SERVER_SOFTWARE</td><td style="vertical-align:top;">:</td><td><div>Rocket 1.2.6</div></td></tr><tr><td style="font-weight:bold;vertical-align:top;">app_folders</td><td style="vertical-align:top;">:</td><td><div>set([&#x27;C:\\\\Users\\\\Miguel\\\\Documents\\\\4 periodo\\\\IBD\\\\web2py_win\\\\web2py\\\\applications\\\\evento&#x27;, &#x27;C:\\\\Users\\\\Miguel\\\\Documents\\\\4 periodo\\\\IBD\\\\web2py_win\\\\web2py\\\\applications\\\\admin&#x27;])</div></td></tr><tr><td style="font-weight:bold;vertical-align:top;">applications_parent</td><td style="vertical-align:top;">:</td><td><div>C:\\Users\\Miguel\\Documents\\4 periodo\\IBD\\web2py_win\\web2py</div></td></tr><tr><td style="font-weight:bold;vertical-align:top;">cmd_args</td><td style="vertical-align:top;">:</td><td><div><table></table></div></td></tr><tr><td style="font-weight:bold;vertical-align:top;">cmd_options</td><td style="vertical-align:top;">:</td><td><div>&lt;Values at 0x3197760: {&#x27;verbose&#x27;: False, &#x27;ip&#x27;: &#x27;127.0.0.1&#x27;, &#x27;debuglevel&#x27;: 30, &#x27;with_scheduler&#x27;: False, &#x27;shutdown_timeout&#x27;: 5, &#x27;taskbar&#x27;: False, &#x27;with_coverage&#x27;: False, &#x27;pid_filename&#x27;: &#x27;httpserver.pid&#x27;, &#x27;maxthreads&#x27;: None, &#x27;softcron&#x27;: False, &#x27;server_name&#x27;: &#x27;DESKTOP-COI0HOF&#x27;, &#x27;bpython&#x27;: False, &#x27;nogui&#x27;: False, &#x27;port&#x27;: 8000, &#x27;print_errors&#x27;: False, &#x27;extcron&#x27;: False, &#x27;runcron&#x27;: False, &#x27;run_system_tests&#x27;: False, &#x27;test&#x27;: None, &#x27;folder&#x27;: &#x27;C:\\\\Users\\\\Miguel\\\\Documents\\\\4 periodo\\\\IBD\\\\web2py_win\\\\web2py&#x27;, &#x27;config&#x27;: &#x27;&#x27;, &#x27;minthreads&#x27;: None, &#x27;shell&#x27;: None, &#x27;run&#x27;: &#x27;&#x27;, &#x27;log_filename&#x27;: &#x27;httpserver.log&#x27;, &#x27;profiler_dir&#x27;: None, &#x27;args&#x27;: [], &#x27;socket_timeout&#x27;: 5, &#x27;ssl_ca_certificate&#x27;: None, &#x27;scheduler&#x27;: None, &#x27;interfaces&#x27;: None, &#x27;ssl_private_key&#x27;: &#x27;&#x27;, &#x27;gae&#x27;: None, &#x27;password&#x27;: &#x27;******&#x27;, &#x27;request_queue_size&#x27;: 5, &#x27;ssl_certificate&#x27;: &#x27;&#x27;, &#x27;cronjob&#x27;: False, &#x27;numthreads&#x27;: None, &#x27;quiet&#x27;: False, &#x27;import_models&#x27;: False, &#x27;timeout&#x27;: 10, &#x27;plain&#x27;: False, &#x27;nobanner&#x27;: False}&gt;</div></td></tr><tr><td style="font-weight:bold;vertical-align:top;">db_sessions</td><td style="vertical-align:top;">:</td><td><div>set([])</div></td></tr><tr><td style="font-weight:bold;vertical-align:top;">debugging</td><td style="vertical-align:top;">:</td><td><div>False</div></td></tr><tr><td style="font-weight:bold;vertical-align:top;">gluon_parent</td><td style="vertical-align:top;">:</td><td><div>C:\\Users\\Miguel\\Documents\\4 periodo\\IBD\\web2py_win\\web2py</div></td></tr><tr><td style="font-weight:bold;vertical-align:top;">http_accept</td><td style="vertical-align:top;">:</td><td><div>text/html,application/xhtml+xml,application/xml;q=0.9,image/webp,image/apng,*/*;q=0.8,application/signed-exchange;v=b3;q=0.9</div></td></tr><tr><td style="font-weight:bold;vertical-align:top;">http_accept_encoding</td><td style="vertical-align:top;">:</td><td><div>gzip, deflate, br</div></td></tr><tr><td style="font-weight:bold;vertical-align:top;">http_accept_language</td><td style="vertical-align:top;">:</td><td><div>en-US,en;q=0.9,pt;q=0.8</div></td></tr><tr><td style="font-weight:bold;vertical-align:top;">http_cache_control</td><td style="vertical-align:top;">:</td><td><div>max-age=0</div></td></tr><tr><td style="font-weight:bold;vertical-align:top;">http_connection</td><td style="vertical-align:top;">:</td><td><div>keep-alive</div></td></tr><tr><td style="font-weight:bold;vertical-align:top;">http_cookie</td><td style="vertical-align:top;">:</td><td><div>session_id_admin=127.0.0.1-519603ea-1636-482a-8dab-d24d6bf88361; session_id_evento=127.0.0.1-4fe48b49-7aba-4f92-aa09-be6b998244d8</div></td></tr><tr><td style="font-weight:bold;vertical-align:top;">http_host</td><td style="vertical-align:top;">:</td><td><div>127.0.0.1:8000</div></td></tr><tr><td style="font-weight:bold;vertical-align:top;">http_referer</td><td style="vertical-align:top;">:</td><td><div>http://127.0.0.1:8000/user/not_authorized</div></td></tr><tr><td style="font-weight:bold;vertical-align:top;">http_sec_fetch_mode</td><td style="vertical-align:top;">:</td><td><div>navigate</div></td></tr><tr><td style="font-weight:bold;vertical-align:top;">http_sec_fetch_site</td><td style="vertical-align:top;">:</td><td><div>same-origin</div></td></tr><tr><td style="font-weight:bold;vertical-align:top;">http_sec_fetch_user</td><td style="vertical-align:top;">:</td><td><div>?1</div></td></tr><tr><td style="font-weight:bold;vertical-align:top;">http_upgrade_insecure_requests</td><td style="vertical-align:top;">:</td><td><div>1</div></td></tr><tr><td style="font-weight:bold;vertical-align:top;">http_user_agent</td><td style="vertical-align:top;">:</td><td><div>Mozilla/5.0 (Windows NT 10.0; Win64; x64) AppleWebKit/537.36 (KHTML, like Gecko) Chrome/79.0.3945.79 Safari/537.36</div></td></tr><tr><td style="font-weight:bold;vertical-align:top;">is_jython</td><td style="vertical-align:top;">:</td><td><div>False</div></td></tr><tr><td style="font-weight:bold;vertical-align:top;">is_py2</td><td style="vertical-align:top;">:</td><td><div>True</div></td></tr><tr><td style="font-weight:bold;vertical-align:top;">is_pypy</td><td style="vertical-align:top;">:</td><td><div>False</div></td></tr><tr><td style="font-weight:bold;vertical-align:top;">is_source</td><td style="vertical-align:top;">:</td><td><div>False</div></td></tr><tr><td style="font-weight:bold;vertical-align:top;">local_hosts</td><td style="vertical-align:top;">:</td><td><div><table><tr><td><div>2804:14d:1487:4254:5dff:b4f7:b5c8:9be4</div></td></tr><tr><td><div>DESKTOP-COI0HOF</div></td></tr><tr><td><div>fe80::f48b:b57:182d:ed3b%3</div></td></tr><tr><td><div>::ffff:127.0.0.1</div></td></tr><tr><td><div>::1</div></td></tr><tr><td><div>192.168.0.12</div></td></tr><tr><td><div>2804:14d:1487:4254:f48b:b57:182d:ed3b</div></td></tr><tr><td><div>127.0.0.1</div></td></tr><tr><td><div>2804:14d:1487:4254::2</div></td></tr></table></div></td></tr><tr><td style="font-weight:bold;vertical-align:top;">path_info</td><td style="vertical-align:top;">:</td><td><div>/meus_eventos</div></td></tr><tr><td style="font-weight:bold;vertical-align:top;">query_string</td><td style="vertical-align:top;">:</td><td><div></div></td></tr><tr><td style="font-weight:bold;vertical-align:top;">remote_addr</td><td style="vertical-align:top;">:</td><td><div>127.0.0.1</div></td></tr><tr><td style="font-weight:bold;vertical-align:top;">remote_port</td><td style="vertical-align:top;">:</td><td><div>51324</div></td></tr><tr><td style="font-weight:bold;vertical-align:top;">request_method</td><td style="vertical-align:top;">:</td><td><div>GET</div></td></tr><tr><td style="font-weight:bold;vertical-align:top;">request_uri</td><td style="vertical-align:top;">:</td><td><div>/evento/default/meus_eventos</div></td></tr><tr><td style="font-weight:bold;vertical-align:top;">script_name</td><td style="vertical-align:top;">:</td><td><div></div></td></tr><tr><td style="font-weight:bold;vertical-align:top;">server_name</td><td style="vertical-align:top;">:</td><td><div>DESKTOP-COI0HOF</div></td></tr><tr><td style="font-weight:bold;vertical-align:top;">server_port</td><td style="vertical-align:top;">:</td><td><div>8000</div></td></tr><tr><td style="font-weight:bold;vertical-align:top;">server_protocol</td><td style="vertical-align:top;">:</td><td><div>HTTP/1.1</div></td></tr><tr><td style="font-weight:bold;vertical-align:top;">server_software</td><td style="vertical-align:top;">:</td><td><div>Rocket 1.2.6</div></td></tr><tr><td style="font-weight:bold;vertical-align:top;">web2py_original_uri</td><td style="vertical-align:top;">:</td><td><div>/meus_eventos</div></td></tr><tr><td style="font-weight:bold;vertical-align:top;">web2py_path</td><td style="vertical-align:top;">:</td><td><div>C:\\Users\\Miguel\\Documents\\4 periodo\\IBD\\web2py_win\\web2py</div></td></tr><tr><td style="font-weight:bold;vertical-align:top;">web2py_version</td><td style="vertical-align:top;">:</td><td><div>2.18.5-stable+timestamp.2019.04.08.04.22.03</div></td></tr><tr><td style="font-weight:bold;vertical-align:top;">wsgi.errors</td><td style="vertical-align:top;">:</td><td><div>&lt;open file &#x27;&lt;stderr&gt;&#x27;, mode &#x27;w&#x27; at 0x0209D0D0&gt;</div></td></tr><tr><td style="font-weight:bold;vertical-align:top;">wsgi.file_wrapper</td><td style="vertical-align:top;">:</td><td><div>&lt;class wsgiref.util.FileWrapper at 0x033C3AB0&gt;</div></td></tr><tr><td style="font-weight:bold;vertical-align:top;">wsgi.input</td><td style="vertical-align:top;">:</td><td><div>&lt;socket._fileobject object at 0x08F7EBF0&gt;</div></td></tr><tr><td style="font-weight:bold;vertical-align:top;">wsgi.multiprocess</td><td style="vertical-align:top;">:</td><td><div>False</div></td></tr><tr><td style="font-weight:bold;vertical-align:top;">wsgi.multithread</td><td style="vertical-align:top;">:</td><td><div>True</div></td></tr><tr><td style="font-weight:bold;vertical-align:top;">wsgi.run_once</td><td style="vertical-align:top;">:</td><td><div>False</div></td></tr><tr><td style="font-weight:bold;vertical-align:top;">wsgi.url_scheme</td><td style="vertical-align:top;">:</td><td><div>http</div></td></tr><tr><td style="font-weight:bold;vertical-align:top;">wsgi.version</td><td style="vertical-align:top;">:</td><td><div><table><tr><td><div>1</div></td></tr><tr><td><div>0</div></td></tr></table></div></td></tr><tr><td style="font-weight:bold;vertical-align:top;">wsgi_errors</td><td style="vertical-align:top;">:</td><td><div>&lt;open file &#x27;&lt;stderr&gt;&#x27;, mode &#x27;w&#x27; at 0x0209D0D0&gt;</div></td></tr><tr><td style="font-weight:bold;vertical-align:top;">wsgi_file_wrapper</td><td style="vertical-align:top;">:</td><td><div>&lt;class wsgiref.util.FileWrapper at 0x033C3AB0&gt;</div></td></tr><tr><td style="font-weight:bold;vertical-align:top;">wsgi_input</td><td style="vertical-align:top;">:</td><td><div>&lt;socket._fileobject object at 0x08F7EBF0&gt;</div></td></tr><tr><td style="font-weight:bold;vertical-align:top;">wsgi_multiprocess</td><td style="vertical-align:top;">:</td><td><div>False</div></td></tr><tr><td style="font-weight:bold;vertical-align:top;">wsgi_multithread</td><td style="vertical-align:top;">:</td><td><div>True</div></td></tr><tr><td style="font-weight:bold;vertical-align:top;">wsgi_run_once</td><td style="vertical-align:top;">:</td><td><div>False</div></td></tr><tr><td style="font-weight:bold;vertical-align:top;">wsgi_url_scheme</td><td style="vertical-align:top;">:</td><td><div>http</div></td></tr><tr><td style="font-weight:bold;vertical-align:top;">wsgi_version</td><td style="vertical-align:top;">:</td><td><div><table><tr><td><div>1</div></td></tr><tr><td><div>0</div></td></tr></table></div></td></tr></table></div></td></tr><tr><td style="font-weight:bold;vertical-align:top;">extension</td><td style="vertical-align:top;">:</td><td><div>html</div></td></tr><tr><td style="font-weight:bold;vertical-align:top;">folder</td><td style="vertical-align:top;">:</td><td><div>C:\\Users\\Miguel\\Documents\\4 periodo\\IBD\\web2py_win\\web2py\\applications\\evento</div></td></tr><tr><td style="font-weight:bold;vertical-align:top;">function</td><td style="vertical-align:top;">:</td><td><div>meus_eventos</div></td></tr><tr><td style="font-weight:bold;vertical-align:top;">global_settings</td><td style="vertical-align:top;">:</td><td><div><table><tr><td style="font-weight:bold;vertical-align:top;">app_folders</td><td style="vertical-align:top;">:</td><td><div>set([&#x27;C:\\\\Users\\\\Miguel\\\\Documents\\\\4 periodo\\\\IBD\\\\web2py_win\\\\web2py\\\\applications\\\\evento&#x27;, &#x27;C:\\\\Users\\\\Miguel\\\\Documents\\\\4 periodo\\\\IBD\\\\web2py_win\\\\web2py\\\\applications\\\\admin&#x27;])</div></td></tr><tr><td style="font-weight:bold;vertical-align:top;">applications_parent</td><td style="vertical-align:top;">:</td><td><div>C:\\Users\\Miguel\\Documents\\4 periodo\\IBD\\web2py_win\\web2py</div></td></tr><tr><td style="font-weight:bold;vertical-align:top;">cmd_args</td><td style="vertical-align:top;">:</td><td><div><table></table></div></td></tr><tr><td style="font-weight:bold;vertical-align:top;">cmd_options</td><td style="vertical-align:top;">:</td><td><div>&lt;Values at 0x3197760: {&#x27;verbose&#x27;: False, &#x27;ip&#x27;: &#x27;127.0.0.1&#x27;, &#x27;debuglevel&#x27;: 30, &#x27;with_scheduler&#x27;: False, &#x27;shutdown_timeout&#x27;: 5, &#x27;taskbar&#x27;: False, &#x27;with_coverage&#x27;: False, &#x27;pid_filename&#x27;: &#x27;httpserver.pid&#x27;, &#x27;maxthreads&#x27;: None, &#x27;softcron&#x27;: False, &#x27;server_name&#x27;: &#x27;DESKTOP-COI0HOF&#x27;, &#x27;bpython&#x27;: False, &#x27;nogui&#x27;: False, &#x27;port&#x27;: 8000, &#x27;print_errors&#x27;: False, &#x27;extcron&#x27;: False, &#x27;runcron&#x27;: False, &#x27;run_system_tests&#x27;: False, &#x27;test&#x27;: None, &#x27;folder&#x27;: &#x27;C:\\\\Users\\\\Miguel\\\\Documents\\\\4 periodo\\\\IBD\\\\web2py_win\\\\web2py&#x27;, &#x27;config&#x27;: &#x27;&#x27;, &#x27;minthreads&#x27;: None, &#x27;shell&#x27;: None, &#x27;run&#x27;: &#x27;&#x27;, &#x27;log_filename&#x27;: &#x27;httpserver.log&#x27;, &#x27;profiler_dir&#x27;: None, &#x27;args&#x27;: [], &#x27;socket_timeout&#x27;: 5, &#x27;ssl_ca_certificate&#x27;: None, &#x27;scheduler&#x27;: None, &#x27;interfaces&#x27;: None, &#x27;ssl_private_key&#x27;: &#x27;&#x27;, &#x27;gae&#x27;: None, &#x27;password&#x27;: &#x27;******&#x27;, &#x27;request_queue_size&#x27;: 5, &#x27;ssl_certificate&#x27;: &#x27;&#x27;, &#x27;cronjob&#x27;: False, &#x27;numthreads&#x27;: None, &#x27;quiet&#x27;: False, &#x27;import_models&#x27;: False, &#x27;timeout&#x27;: 10, &#x27;plain&#x27;: False, &#x27;nobanner&#x27;: False}&gt;</div></td></tr><tr><td style="font-weight:bold;vertical-align:top;">db_sessions</td><td style="vertical-align:top;">:</td><td><div>set([])</div></td></tr><tr><td style="font-weight:bold;vertical-align:top;">debugging</td><td style="vertical-align:top;">:</td><td><div>False</div></td></tr><tr><td style="font-weight:bold;vertical-align:top;">gluon_parent</td><td style="vertical-align:top;">:</td><td><div>C:\\Users\\Miguel\\Documents\\4 periodo\\IBD\\web2py_win\\web2py</div></td></tr><tr><td style="font-weight:bold;vertical-align:top;">is_jython</td><td style="vertical-align:top;">:</td><td><div>False</div></td></tr><tr><td style="font-weight:bold;vertical-align:top;">is_py2</td><td style="vertical-align:top;">:</td><td><div>True</div></td></tr><tr><td style="font-weight:bold;vertical-align:top;">is_pypy</td><td style="vertical-align:top;">:</td><td><div>False</div></td></tr><tr><td style="font-weight:bold;vertical-align:top;">is_source</td><td style="vertical-align:top;">:</td><td><div>False</div></td></tr><tr><td style="font-weight:bold;vertical-align:top;">local_hosts</td><td style="vertical-align:top;">:</td><td><div><table><tr><td><div>2804:14d:1487:4254:5dff:b4f7:b5c8:9be4</div></td></tr><tr><td><div>DESKTOP-COI0HOF</div></td></tr><tr><td><div>fe80::f48b:b57:182d:ed3b%3</div></td></tr><tr><td><div>::ffff:127.0.0.1</div></td></tr><tr><td><div>::1</div></td></tr><tr><td><div>192.168.0.12</div></td></tr><tr><td><div>2804:14d:1487:4254:f48b:b57:182d:ed3b</div></td></tr><tr><td><div>127.0.0.1</div></td></tr><tr><td><div>2804:14d:1487:4254::2</div></td></tr></table></div></td></tr><tr><td style="font-weight:bold;vertical-align:top;">web2py_version</td><td style="vertical-align:top;">:</td><td><div>2.18.5-stable+timestamp.2019.04.08.04.22.03</div></td></tr></table></div></td></tr><tr><td style="font-weight:bold;vertical-align:top;">is_https</td><td style="vertical-align:top;">:</td><td><div>False</div></td></tr><tr><td style="font-weight:bold;vertical-align:top;">is_local</td><td style="vertical-align:top;">:</td><td><div>True</div></td></tr><tr><td style="font-weight:bold;vertical-align:top;">is_restful</td><td style="vertical-align:top;">:</td><td><div>False</div></td></tr><tr><td style="font-weight:bold;vertical-align:top;">is_scheduler</td><td style="vertical-align:top;">:</td><td><div>False</div></td></tr><tr><td style="font-weight:bold;vertical-align:top;">is_shell</td><td style="vertical-align:top;">:</td><td><div>False</div></td></tr><tr><td style="font-weight:bold;vertical-align:top;">method</td><td style="vertical-align:top;">:</td><td><div>GET</div></td></tr><tr><td style="font-weight:bold;vertical-align:top;">now</td><td style="vertical-align:top;">:</td><td><div>datetime.datetime(2019, 12, 16, 10, 7, 58, 541000)</div></td></tr><tr><td style="font-weight:bold;vertical-align:top;">url</td><td style="vertical-align:top;">:</td><td><div>/meus_eventos</div></td></tr><tr><td style="font-weight:bold;vertical-align:top;">utcnow</td><td style="vertical-align:top;">:</td><td><div>datetime.datetime(2019, 12, 16, 14, 7, 58, 541000)</div></td></tr><tr><td style="font-weight:bold;vertical-align:top;">wsgi</td><td style="vertical-align:top;">:</td><td><div>&lt;gluon.main.LazyWSGI object at 0x08F040F0&gt;</div></td></tr></table></div>'
tRp58
sS'frames'
p59
(lp60
(dp61
S'file'
p62
S'C:\\Users\\Miguel\\Documents\\4 periodo\\IBD\\web2py_win\\web2py\\gluon\\restricted.py'
p63
sS'dump'
p64
(dp65
S'environment'
p66
S"{'A': <class 'gluon.html.A'>, 'ANY_OF': <class 'pydal.validators.ANY_OF'>, 'ASSIGNJS': <function ASSIGNJS>, 'AppConfig': <function AppConfig>, 'Auth': <class 'gluon.tools.Auth'>, 'B': <class 'gluon.html.B'>, 'BEAUTIFY': <class 'gluon.html.BEAUTIFY'>, 'BODY': <class 'gluon.html.BODY'>, 'BR': <class 'gluon.html.BR'>, 'BUTTON': <class 'gluon.html.BUTTON'>, ...}"
p67
sS'ccode'
p68
S'<code object <module> at 03B00698, file "C:\\User...lications\\evento\\controllers/default.py", line 3>'
p69
ssS'lnum'
p70
I219
sS'lines'
p71
(dp72
I214
S'    if environment is None:'
p73
sI215
S'        environment = {}'
p74
sI216
S"    environment['__file__'] = layer"
p75
sI217
S"    environment['__name__'] = '__restricted__'"
p76
sI218
S'    try:'
p77
sI219
S'        exec(ccode, environment)'
p78
sI220
S'    except HTTP:'
p79
sI221
S'        raise'
p80
sI222
S'    except RestrictedError:'
p81
sI223
S'        # do not encapsulate (obfuscate) the original RestrictedError'
p82
ssS'call'
p83
S'(ccode=<code object <module> at 03B00698, file "C:\\User...lications\\evento\\controllers/default.py", line 3>, environment={\'A\': <class \'gluon.html.A\'>, \'ANY_OF\': <class \'pydal.validators.ANY_OF\'>, \'ASSIGNJS\': <function ASSIGNJS>, \'AppConfig\': <function AppConfig>, \'Auth\': <class \'gluon.tools.Auth\'>, \'B\': <class \'gluon.html.B\'>, \'BEAUTIFY\': <class \'gluon.html.BEAUTIFY\'>, \'BODY\': <class \'gluon.html.BODY\'>, \'BR\': <class \'gluon.html.BR\'>, \'BUTTON\': <class \'gluon.html.BUTTON\'>, ...}, layer=r\'C:\\Users\\Miguel\\Documents\\4 periodo\\IBD\\web2py_win\\web2py\\applications\\evento\\controllers/default.py\', scode=<code object <module> at 03B00698, file "C:\\User...lications\\evento\\controllers/default.py", line 3>)'
p84
sS'func'
p85
S'restricted'
p86
sa(dp87
g62
S'C:\\Users\\Miguel\\Documents\\4 periodo\\IBD\\web2py_win\\web2py\\applications\\evento\\controllers\\default.py'
p88
sg64
(dp89
sg70
I183
sg71
(dp90
I173
S"    response.view = 'generic.html' # use a generic view"
p91
sI174
S'    tablename = request.args(0)'
p92
sI175
S'    if not tablename in db.tables: raise HTTP(403)'
p93
sI176
S'    grid = SQLFORM.smartgrid(db[tablename], args=[tablename], deletable=False, editable=False)'
p94
sI177
S'    return dict(grid=grid)'
p95
sI178
S''
sI179
S'# ---- Embedded wiki (example) ----'
p96
sI180
S'def wiki():'
p97
sI181
S'    auth.wikimenu() # add the wiki to the menu'
p98
sI182
S'    return auth.wiki()'
p99
ssg83
S'()'
p100
sg85
S'<module>'
p101
sa(dp102
g62
S'C:\\Users\\Miguel\\Documents\\4 periodo\\IBD\\web2py_win\\web2py\\gluon\\globals.py'
p103
sg64
(dp104
S'self'
p105
S'undefined'
p106
sS'f'
S'<function meus_eventos>'
p107
ssg70
I421
sg71
(dp108
I416
S"        self.flash = ''            # used by the default view layout"
p109
sI417
S'        self.meta = Storage()      # used by web2py_ajax.html'
p110
sI418
S'        self.menu = []             # used by the default view layout'
p111
sI419
S'        self.files = []            # used by web2py_ajax.html'
p112
sI420
S'        self._vars = None'
p113
sI421
S'        self._caller = lambda f: f()'
p114
sI422
S'        self._view_environment = None'
p115
sI423
S'        self._custom_commit = None'
p116
sI424
S'        self._custom_rollback = None'
p117
sI425
S"        self.generic_patterns = ['*']"
p118
ssg83
S'(f=<function meus_eventos>)'
p119
sg85
S'<lambda>'
p120
sa(dp121
g62
S'C:\\Users\\Miguel\\Documents\\4 periodo\\IBD\\web2py_win\\web2py\\gluon\\tools.py'
p122
sg64
(dp123
S'action'
p124
S'<function meus_eventos>'
p125
sS'a'
S'()'
p126
sS'b'
g19
ssg70
I3869
sg71
(dp127
I3872
S'            f.__dict__.update(action.__dict__)'
p128
sI3873
S'            return f'
p129
sI3864
S'                    flag = condition'
p130
sI3865
S'                if not flag:'
p131
sI3866
S'                    current.session.flash = self.messages.access_denied'
p132
sI3867
S'                    return call_or_redirect('
p133
sI3868
S'                        self.settings.on_failed_authorization)'
p134
sI3869
S'                return action(*a, **b)'
p135
sI3870
S'            f.__doc__ = action.__doc__'
p136
sI3871
S'            f.__name__ = action.__name__'
p137
ssg83
S'(*a=(), **b={})'
p138
sg85
S'f'
sa(dp139
g62
S'C:\\Users\\Miguel\\Documents\\4 periodo\\IBD\\web2py_win\\web2py\\applications\\evento\\controllers\\default.py'
p140
sg64
(dp141
S'db.Participacao'
p142
S'<Table Participacao (id, cli_id, eve_id, avaliacao, avaliou)>'
p143
sS'db.Participacao.eve_id.writable'
p144
S'True'
p145
sS'builtinFalse'
p146
S'False'
p147
sS'db.Participacao.cli_id.writable'
p148
g145
sS'db.Participacao.cli_id'
p149
S'<pydal.objects.Field object>'
p150
sS'global db'
p151
S'<DAL uri="sqlite://storage.sqlite">'
p152
sS'db.Participacao.eve_id'
p153
S'<pydal.objects.Field object>'
p154
ssg70
I38
sg71
(dp155
I33
S'def meus_eventos():'
p156
sI34
S'\tmsg = "Meus Eventos"'
p157
sI35
S''
sI36
S'\t##usuario ou organizacao'
p158
sI37
S'\tprint(session.auth.user_groups)'
p159
sI38
S'\tprint(session.auth.user_groups[3] == None)'
p160
sI39
S'\tif(session.auth.user_groups[3] == None):'
p161
sI40
S'\t\tdb.Participacao.cli_id.writable = db.Participacao.eve_id.writable = False'
p162
sI41
S'\t\tquery = db.Evento.id == db.Participacao.eve_id and session.auth.user.id == db.Participacao.cli_id'
p163
sI42
S'\t\tform = SQLFORM.grid(query,deletable=False,create=False,csv=False,user_signature=False)'
p164
ssg83
S'()'
p165
sg85
S'meus_eventos'
p166
sasS'pyver'
p167
S'Python 2.7.9: C:\\Users\\Miguel\\Documents\\4 periodo\\IBD\\web2py_win\\web2py\\web2py.exe (prefix: )'
p168
sS'session'
p169
g57
(S'so\n\x00\x00<div><table><tr><td style="font-weight:bold;vertical-align:top;">auth</td><td style="vertical-align:top;">:</td><td><div><table><tr><td style="font-weight:bold;vertical-align:top;">expiration</td><td style="vertical-align:top;">:</td><td><div>3600</div></td></tr><tr><td style="font-weight:bold;vertical-align:top;">hmac_key</td><td style="vertical-align:top;">:</td><td><div>cf3b9130-f046-4663-8b3b-0745da453f15</div></td></tr><tr><td style="font-weight:bold;vertical-align:top;">last_visit</td><td style="vertical-align:top;">:</td><td><div>datetime.datetime(2019, 12, 16, 10, 6, 42, 399000)</div></td></tr><tr><td style="font-weight:bold;vertical-align:top;">remember_me</td><td style="vertical-align:top;">:</td><td><div>False</div></td></tr><tr><td style="font-weight:bold;vertical-align:top;">user</td><td style="vertical-align:top;">:</td><td><div><table><tr><td style="font-weight:bold;vertical-align:top;">email</td><td style="vertical-align:top;">:</td><td><div>email@gmail.com</div></td></tr><tr><td style="font-weight:bold;vertical-align:top;">first_name</td><td style="vertical-align:top;">:</td><td><div>Miguel</div></td></tr><tr><td style="font-weight:bold;vertical-align:top;">id</td><td style="vertical-align:top;">:</td><td><div>1L</div></td></tr><tr><td style="font-weight:bold;vertical-align:top;">img</td><td style="vertical-align:top;">:</td><td><div></div></td></tr><tr><td style="font-weight:bold;vertical-align:top;">last_name</td><td style="vertical-align:top;">:</td><td><div>Castro</div></td></tr><tr><td style="font-weight:bold;vertical-align:top;">numero</td><td style="vertical-align:top;">:</td><td><div>99999999999</div></td></tr><tr><td style="font-weight:bold;vertical-align:top;">registration_id</td><td style="vertical-align:top;">:</td><td><div></div></td></tr><tr><td style="font-weight:bold;vertical-align:top;">registration_key</td><td style="vertical-align:top;">:</td><td><div></div></td></tr><tr><td style="font-weight:bold;vertical-align:top;">reset_password_key</td><td style="vertical-align:top;">:</td><td><div></div></td></tr></table></div></td></tr><tr><td style="font-weight:bold;vertical-align:top;">user_groups</td><td style="vertical-align:top;">:</td><td><div><table><tr><td style="font-weight:bold;vertical-align:top;">2</td><td style="vertical-align:top;">:</td><td><div>usuario</div></td></tr><tr><td style="font-weight:bold;vertical-align:top;">4</td><td style="vertical-align:top;">:</td><td><div>user_1</div></td></tr></table></div></td></tr></table></div></td></tr><tr><td style="font-weight:bold;vertical-align:top;">flash</td><td style="vertical-align:top;">:</td><td><div>None</div></td></tr></table></div>'
tRp170
sS'etype'
p171
S"<type 'exceptions.KeyError'>"
p172
sS'date'
p173
S'Mon Dec 16 10:07:58 2019'
p174
sS'response'
p175
g57
(S'sy$\x00\x00<div><table><tr><td style="font-weight:bold;vertical-align:top;">body</td><td style="vertical-align:top;">:</td><td><div>&lt;cStringIO.StringO object at 0x08F5F4E0&gt;</div></td></tr><tr><td style="font-weight:bold;vertical-align:top;">cookies</td><td style="vertical-align:top;">:</td><td><div><table><tr><td style="font-weight:bold;vertical-align:top;">session_id_evento</td><td style="vertical-align:top;">:</td><td><div>127.0.0.1-4fe48b49-7aba-4f92-aa09-be6b998244d8<table><tr><td style="font-weight:bold;vertical-align:top;">comment</td><td style="vertical-align:top;">:</td><td><div></div></td></tr><tr><td style="font-weight:bold;vertical-align:top;">domain</td><td style="vertical-align:top;">:</td><td><div></div></td></tr><tr><td style="font-weight:bold;vertical-align:top;">expires</td><td style="vertical-align:top;">:</td><td><div></div></td></tr><tr><td style="font-weight:bold;vertical-align:top;">httponly</td><td style="vertical-align:top;">:</td><td><div></div></td></tr><tr><td style="font-weight:bold;vertical-align:top;">max-age</td><td style="vertical-align:top;">:</td><td><div></div></td></tr><tr><td style="font-weight:bold;vertical-align:top;">path</td><td style="vertical-align:top;">:</td><td><div>/</div></td></tr><tr><td style="font-weight:bold;vertical-align:top;">samesite</td><td style="vertical-align:top;">:</td><td><div></div></td></tr><tr><td style="font-weight:bold;vertical-align:top;">secure</td><td style="vertical-align:top;">:</td><td><div></div></td></tr><tr><td style="font-weight:bold;vertical-align:top;">version</td><td style="vertical-align:top;">:</td><td><div></div></td></tr></table></div></td></tr></table></div></td></tr><tr><td style="font-weight:bold;vertical-align:top;">delimiters</td><td style="vertical-align:top;">:</td><td><div><table><tr><td><div>{{</div></td></tr><tr><td><div>}}</div></td></tr></table></div></td></tr><tr><td style="font-weight:bold;vertical-align:top;">files</td><td style="vertical-align:top;">:</td><td><div><table></table></div></td></tr><tr><td style="font-weight:bold;vertical-align:top;">flash</td><td style="vertical-align:top;">:</td><td><div></div></td></tr><tr><td style="font-weight:bold;vertical-align:top;">form_label_separator</td><td style="vertical-align:top;">:</td><td><div></div></td></tr><tr><td style="font-weight:bold;vertical-align:top;">formstyle</td><td style="vertical-align:top;">:</td><td><div>bootstrap4_inline</div></td></tr><tr><td style="font-weight:bold;vertical-align:top;">generic_patterns</td><td style="vertical-align:top;">:</td><td><div><table><tr><td><div>*</div></td></tr></table></div></td></tr><tr><td style="font-weight:bold;vertical-align:top;">google_analytics_id</td><td style="vertical-align:top;">:</td><td><div>None</div></td></tr><tr><td style="font-weight:bold;vertical-align:top;">headers</td><td style="vertical-align:top;">:</td><td><div><table><tr><td style="font-weight:bold;vertical-align:top;">X-Powered-By</td><td style="vertical-align:top;">:</td><td><div>web2py</div></td></tr></table></div></td></tr><tr><td style="font-weight:bold;vertical-align:top;">menu</td><td style="vertical-align:top;">:</td><td><div><table><tr><td><div><table><tr><td><div>Home</div></td></tr><tr><td><div>False</div></td></tr><tr><td><div>/</div></td></tr><tr><td><div><table></table></div></td></tr></table></div></td></tr><tr><td><div><table><tr><td><div>Meus Eventos</div></td></tr><tr><td><div>False</div></td></tr><tr><td><div>/meus_eventos</div></td></tr><tr><td><div><table></table></div></td></tr></table></div></td></tr><tr><td><div><table><tr><td><div>Criar Evento</div></td></tr><tr><td><div>False</div></td></tr><tr><td><div>/criar_evento</div></td></tr><tr><td><div><table></table></div></td></tr></table></div></td></tr><tr><td><div><table><tr><td><div>Meus Perfil</div></td></tr><tr><td><div>False</div></td></tr><tr><td><div>/meus_eventos</div></td></tr><tr><td><div><table><tr><td><div><table><tr><td><div>Usuario</div></td></tr><tr><td><div>False</div></td></tr><tr><td><div>/default/user/profile</div></td></tr><tr><td><div>[]</div></td></tr></table></div></td></tr><tr><td><div><table><tr><td><div>Cliete</div></td></tr><tr><td><div>False</div></td></tr><tr><td><div>/cliente</div></td></tr><tr><td><div>[]</div></td></tr></table></div></td></tr><tr><td><div><table><tr><td><div>Organizacao</div></td></tr><tr><td><div>False</div></td></tr><tr><td><div>/organizacao</div></td></tr><tr><td><div>[]</div></td></tr></table></div></td></tr></table></div></td></tr></table></div></td></tr><tr><td><div><table><tr><td><div>Relatorios</div></td></tr><tr><td><div>False</div></td></tr><tr><td><div>/meus_eventos</div></td></tr><tr><td><div><table><tr><td><div><table><tr><td><div>Relatorio Tags</div></td></tr><tr><td><div>False</div></td></tr><tr><td><div>/tag</div></td></tr><tr><td><div>[]</div></td></tr></table></div></td></tr><tr><td><div><table><tr><td><div>Relatorio Clientes</div></td></tr><tr><td><div>False</div></td></tr><tr><td><div>/cliente</div></td></tr><tr><td><div>[]</div></td></tr></table></div></td></tr><tr><td><div><table><tr><td><div>Relatorio Intervalos</div></td></tr><tr><td><div>False</div></td></tr><tr><td><div>/intevalo</div></td></tr><tr><td><div>[]</div></td></tr></table></div></td></tr></table></div></td></tr></table></div></td></tr></table></div></td></tr><tr><td style="font-weight:bold;vertical-align:top;">meta</td><td style="vertical-align:top;">:</td><td><div><table><tr><td style="font-weight:bold;vertical-align:top;">author</td><td style="vertical-align:top;">:</td><td><div>Your Name &lt;you@example.com&gt;</div></td></tr><tr><td style="font-weight:bold;vertical-align:top;">description</td><td style="vertical-align:top;">:</td><td><div>a cool new app</div></td></tr><tr><td style="font-weight:bold;vertical-align:top;">generator</td><td style="vertical-align:top;">:</td><td><div>Web2py Web Framework</div></td></tr><tr><td style="font-weight:bold;vertical-align:top;">keywords</td><td style="vertical-align:top;">:</td><td><div><table><tr><td><div>web2py</div></td></tr><tr><td><div>python</div></td></tr><tr><td><div>framework</div></td></tr></table></div></td></tr></table></div></td></tr><tr><td style="font-weight:bold;vertical-align:top;">models_to_run</td><td style="vertical-align:top;">:</td><td><div><table><tr><td><div>^\\w+\\.py$</div></td></tr><tr><td><div>^default/\\w+\\.py$</div></td></tr><tr><td><div>^default/meus_eventos/\\w+\\.py$</div></td></tr></table></div></td></tr><tr><td style="font-weight:bold;vertical-align:top;">postprocessing</td><td style="vertical-align:top;">:</td><td><div><table></table></div></td></tr><tr><td style="font-weight:bold;vertical-align:top;">session_client</td><td style="vertical-align:top;">:</td><td><div>127.0.0.1</div></td></tr><tr><td style="font-weight:bold;vertical-align:top;">session_cookie_compression_level</td><td style="vertical-align:top;">:</td><td><div>None</div></td></tr><tr><td style="font-weight:bold;vertical-align:top;">session_cookie_expires</td><td style="vertical-align:top;">:</td><td><div>None</div></td></tr><tr><td style="font-weight:bold;vertical-align:top;">session_data_name</td><td style="vertical-align:top;">:</td><td><div>session_data_evento</div></td></tr><tr><td style="font-weight:bold;vertical-align:top;">session_file</td><td style="vertical-align:top;">:</td><td><div>&lt;open file &#x27;C:\\\\Users\\\\Miguel\\\\Documents\\\\4 periodo\\\\IBD\\\\web2py_win\\\\web2py\\\\applications\\\\evento\\\\sessions\\\\08f\\\\0f8\\\\127.0.0.1-4fe48b49-7aba-4f92-aa09-be6b998244d8&#x27;, mode &#x27;rb+&#x27; at 0x046536A8&gt;</div></td></tr><tr><td style="font-weight:bold;vertical-align:top;">session_filename</td><td style="vertical-align:top;">:</td><td><div>C:\\Users\\Miguel\\Documents\\4 periodo\\IBD\\web2py_win\\web2py\\applications\\evento\\sessions\\127.0.0.1-4fe48b49-7aba-4f92-aa09-be6b998244d8</div></td></tr><tr><td style="font-weight:bold;vertical-align:top;">session_hash</td><td style="vertical-align:top;">:</td><td><div>aa490b5e3a776ab92054f3e61bff8c38</div></td></tr><tr><td style="font-weight:bold;vertical-align:top;">session_id</td><td style="vertical-align:top;">:</td><td><div>127.0.0.1-4fe48b49-7aba-4f92-aa09-be6b998244d8</div></td></tr><tr><td style="font-weight:bold;vertical-align:top;">session_id_name</td><td style="vertical-align:top;">:</td><td><div>session_id_evento</div></td></tr><tr><td style="font-weight:bold;vertical-align:top;">session_locked</td><td style="vertical-align:top;">:</td><td><div>True</div></td></tr><tr><td style="font-weight:bold;vertical-align:top;">session_masterapp</td><td style="vertical-align:top;">:</td><td><div>evento</div></td></tr><tr><td style="font-weight:bold;vertical-align:top;">session_new</td><td style="vertical-align:top;">:</td><td><div>False</div></td></tr><tr><td style="font-weight:bold;vertical-align:top;">session_storage_type</td><td style="vertical-align:top;">:</td><td><div>file</div></td></tr><tr><td style="font-weight:bold;vertical-align:top;">show_toolbar</td><td style="vertical-align:top;">:</td><td><div>True</div></td></tr><tr><td style="font-weight:bold;vertical-align:top;">status</td><td style="vertical-align:top;">:</td><td><div>200</div></td></tr><tr><td style="font-weight:bold;vertical-align:top;">view</td><td style="vertical-align:top;">:</td><td><div>default/meus_eventos.html</div></td></tr></table></div>'
tRp176
sS'locals'
p177
(dp178
S'msg'
p179
S"'Meus Eventos'"
p180
sssS'traceback'
p181
S'Traceback (most recent call last):\n  File "C:\\Users\\Miguel\\Documents\\4 periodo\\IBD\\web2py_win\\web2py\\gluon\\restricted.py", line 219, in restricted\n    exec(ccode, environment)\n  File "C:\\Users\\Miguel\\Documents\\4 periodo\\IBD\\web2py_win\\web2py\\applications\\evento\\controllers/default.py", line 183, in <module>\n  File "C:\\Users\\Miguel\\Documents\\4 periodo\\IBD\\web2py_win\\web2py\\gluon\\globals.py", line 421, in <lambda>\n    self._caller = lambda f: f()\n  File "C:\\Users\\Miguel\\Documents\\4 periodo\\IBD\\web2py_win\\web2py\\gluon\\tools.py", line 3869, in f\n    return action(*a, **b)\n  File "C:\\Users\\Miguel\\Documents\\4 periodo\\IBD\\web2py_win\\web2py\\applications\\evento\\controllers/default.py", line 38, in meus_eventos\n    print(session.auth.user_groups[3] == None)\nKeyError: 3\n'
p182
s.