(dp1
S'output'
p2
S"<type 'exceptions.KeyError'> '0'"
p3
sS'layer'
p4
S'C:\\Users\\Miguel\\Documents\\4 periodo\\IBD\\web2py_win\\web2py\\applications\\evento\\controllers/default.py'
p5
sS'code'
p6
S'<code object <module> at 0548BD10, file "C:\\Users\\Miguel\\Documents\\4 periodo\\IBD\\web2py_win\\web2py\\applications\\evento\\controllers/default.py", line 3>'
p7
sS'snapshot'
p8
(dp9
S'exception'
p10
(dp11
S'__getslice__'
p12
S"<method-wrapper '__getslice__' of exceptions.KeyError object>"
p13
sS'__str__'
p14
S"<method-wrapper '__str__' of exceptions.KeyError object>"
p15
sS'__reduce__'
p16
S'<built-in method __reduce__ of exceptions.KeyError object>'
p17
sS'__dict__'
p18
S'{}'
p19
sS'message'
p20
S"'0'"
p21
sS'__sizeof__'
p22
S'<built-in method __sizeof__ of exceptions.KeyError object>'
p23
sS'__init__'
p24
S"<method-wrapper '__init__' of exceptions.KeyError object>"
p25
sS'__setattr__'
p26
S"<method-wrapper '__setattr__' of exceptions.KeyError object>"
p27
sS'__reduce_ex__'
p28
S'<built-in method __reduce_ex__ of exceptions.KeyError object>'
p29
sS'__new__'
p30
S'<built-in method __new__ of type object>'
p31
sS'__format__'
p32
S'<built-in method __format__ of exceptions.KeyError object>'
p33
sS'__class__'
p34
S"<type 'exceptions.KeyError'>"
p35
sS'__doc__'
p36
S"'Mapping key not found.'"
p37
sS'__getitem__'
p38
S"<method-wrapper '__getitem__' of exceptions.KeyError object>"
p39
sS'__setstate__'
p40
S'<built-in method __setstate__ of exceptions.KeyError object>'
p41
sS'__getattribute__'
p42
S"<method-wrapper '__getattribute__' of exceptions.KeyError object>"
p43
sS'args'
p44
S"('0',)"
p45
sS'__subclasshook__'
p46
S'<built-in method __subclasshook__ of type object>'
p47
sS'__unicode__'
p48
S'<built-in method __unicode__ of exceptions.KeyError object>'
p49
sS'__delattr__'
p50
S"<method-wrapper '__delattr__' of exceptions.KeyError object>"
p51
sS'__repr__'
p52
S"<method-wrapper '__repr__' of exceptions.KeyError object>"
p53
sS'__hash__'
p54
S"<method-wrapper '__hash__' of exceptions.KeyError object>"
p55
ssS'evalue'
p56
S"'0'"
p57
sS'request'
p58
cgluon.html
XML_unpickle
p59
(S's\x9b^\x00\x00<div><table><tr><td style="font-weight:bold;vertical-align:top;">ajax</td><td style="vertical-align:top;">:</td><td><div>False</div></td></tr><tr><td style="font-weight:bold;vertical-align:top;">application</td><td style="vertical-align:top;">:</td><td><div>evento</div></td></tr><tr><td style="font-weight:bold;vertical-align:top;">args</td><td style="vertical-align:top;">:</td><td><div><table><tr><td><div>Evento</div></td></tr></table></div></td></tr><tr><td style="font-weight:bold;vertical-align:top;">cid</td><td style="vertical-align:top;">:</td><td><div>None</div></td></tr><tr><td style="font-weight:bold;vertical-align:top;">client</td><td style="vertical-align:top;">:</td><td><div>127.0.0.1</div></td></tr><tr><td style="font-weight:bold;vertical-align:top;">controller</td><td style="vertical-align:top;">:</td><td><div>default</div></td></tr><tr><td style="font-weight:bold;vertical-align:top;">cookies</td><td style="vertical-align:top;">:</td><td><div><table><tr><td style="font-weight:bold;vertical-align:top;">session_id_admin</td><td style="vertical-align:top;">:</td><td><div>127.0.0.1-5ddfdb21-4324-401b-a6f4-072b258086d4<table><tr><td style="font-weight:bold;vertical-align:top;">comment</td><td style="vertical-align:top;">:</td><td><div></div></td></tr><tr><td style="font-weight:bold;vertical-align:top;">domain</td><td style="vertical-align:top;">:</td><td><div></div></td></tr><tr><td style="font-weight:bold;vertical-align:top;">expires</td><td style="vertical-align:top;">:</td><td><div></div></td></tr><tr><td style="font-weight:bold;vertical-align:top;">httponly</td><td style="vertical-align:top;">:</td><td><div></div></td></tr><tr><td style="font-weight:bold;vertical-align:top;">max-age</td><td style="vertical-align:top;">:</td><td><div></div></td></tr><tr><td style="font-weight:bold;vertical-align:top;">path</td><td style="vertical-align:top;">:</td><td><div></div></td></tr><tr><td style="font-weight:bold;vertical-align:top;">samesite</td><td style="vertical-align:top;">:</td><td><div></div></td></tr><tr><td style="font-weight:bold;vertical-align:top;">secure</td><td style="vertical-align:top;">:</td><td><div></div></td></tr><tr><td style="font-weight:bold;vertical-align:top;">version</td><td style="vertical-align:top;">:</td><td><div></div></td></tr></table></div></td></tr><tr><td style="font-weight:bold;vertical-align:top;">session_id_evento</td><td style="vertical-align:top;">:</td><td><div>127.0.0.1-6f62321e-4c16-433d-ab8f-d6d65b9c01ec<table><tr><td style="font-weight:bold;vertical-align:top;">comment</td><td style="vertical-align:top;">:</td><td><div></div></td></tr><tr><td style="font-weight:bold;vertical-align:top;">domain</td><td style="vertical-align:top;">:</td><td><div></div></td></tr><tr><td style="font-weight:bold;vertical-align:top;">expires</td><td style="vertical-align:top;">:</td><td><div></div></td></tr><tr><td style="font-weight:bold;vertical-align:top;">httponly</td><td style="vertical-align:top;">:</td><td><div></div></td></tr><tr><td style="font-weight:bold;vertical-align:top;">max-age</td><td style="vertical-align:top;">:</td><td><div></div></td></tr><tr><td style="font-weight:bold;vertical-align:top;">path</td><td style="vertical-align:top;">:</td><td><div></div></td></tr><tr><td style="font-weight:bold;vertical-align:top;">samesite</td><td style="vertical-align:top;">:</td><td><div></div></td></tr><tr><td style="font-weight:bold;vertical-align:top;">secure</td><td style="vertical-align:top;">:</td><td><div></div></td></tr><tr><td style="font-weight:bold;vertical-align:top;">version</td><td style="vertical-align:top;">:</td><td><div></div></td></tr></table></div></td></tr></table></div></td></tr><tr><td style="font-weight:bold;vertical-align:top;">env</td><td style="vertical-align:top;">:</td><td><div><table><tr><td style="font-weight:bold;vertical-align:top;">HTTP_ACCEPT</td><td style="vertical-align:top;">:</td><td><div>text/html,application/xhtml+xml,application/xml;q=0.9,image/webp,image/apng,*/*;q=0.8,application/signed-exchange;v=b3;q=0.9</div></td></tr><tr><td style="font-weight:bold;vertical-align:top;">HTTP_ACCEPT_ENCODING</td><td style="vertical-align:top;">:</td><td><div>gzip, deflate, br</div></td></tr><tr><td style="font-weight:bold;vertical-align:top;">HTTP_ACCEPT_LANGUAGE</td><td style="vertical-align:top;">:</td><td><div>en-US,en;q=0.9,pt;q=0.8</div></td></tr><tr><td style="font-weight:bold;vertical-align:top;">HTTP_CACHE_CONTROL</td><td style="vertical-align:top;">:</td><td><div>max-age=0</div></td></tr><tr><td style="font-weight:bold;vertical-align:top;">HTTP_CONNECTION</td><td style="vertical-align:top;">:</td><td><div>keep-alive</div></td></tr><tr><td style="font-weight:bold;vertical-align:top;">HTTP_COOKIE</td><td style="vertical-align:top;">:</td><td><div>session_id_evento=127.0.0.1-6f62321e-4c16-433d-ab8f-d6d65b9c01ec; session_id_admin=127.0.0.1-5ddfdb21-4324-401b-a6f4-072b258086d4</div></td></tr><tr><td style="font-weight:bold;vertical-align:top;">HTTP_HOST</td><td style="vertical-align:top;">:</td><td><div>127.0.0.1:8000</div></td></tr><tr><td style="font-weight:bold;vertical-align:top;">HTTP_SEC_FETCH_MODE</td><td style="vertical-align:top;">:</td><td><div>navigate</div></td></tr><tr><td style="font-weight:bold;vertical-align:top;">HTTP_SEC_FETCH_SITE</td><td style="vertical-align:top;">:</td><td><div>none</div></td></tr><tr><td style="font-weight:bold;vertical-align:top;">HTTP_SEC_FETCH_USER</td><td style="vertical-align:top;">:</td><td><div>?1</div></td></tr><tr><td style="font-weight:bold;vertical-align:top;">HTTP_UPGRADE_INSECURE_REQUESTS</td><td style="vertical-align:top;">:</td><td><div>1</div></td></tr><tr><td style="font-weight:bold;vertical-align:top;">HTTP_USER_AGENT</td><td style="vertical-align:top;">:</td><td><div>Mozilla/5.0 (Windows NT 10.0; Win64; x64) AppleWebKit/537.36 (KHTML, like Gecko) Chrome/79.0.3945.79 Safari/537.36</div></td></tr><tr><td style="font-weight:bold;vertical-align:top;">PATH_INFO</td><td style="vertical-align:top;">:</td><td><div>/</div></td></tr><tr><td style="font-weight:bold;vertical-align:top;">QUERY_STRING</td><td style="vertical-align:top;">:</td><td><div></div></td></tr><tr><td style="font-weight:bold;vertical-align:top;">REMOTE_ADDR</td><td style="vertical-align:top;">:</td><td><div>127.0.0.1</div></td></tr><tr><td style="font-weight:bold;vertical-align:top;">REMOTE_PORT</td><td style="vertical-align:top;">:</td><td><div>50763</div></td></tr><tr><td style="font-weight:bold;vertical-align:top;">REQUEST_METHOD</td><td style="vertical-align:top;">:</td><td><div>GET</div></td></tr><tr><td style="font-weight:bold;vertical-align:top;">SCRIPT_NAME</td><td style="vertical-align:top;">:</td><td><div></div></td></tr><tr><td style="font-weight:bold;vertical-align:top;">SERVER_NAME</td><td style="vertical-align:top;">:</td><td><div>DESKTOP-COI0HOF</div></td></tr><tr><td style="font-weight:bold;vertical-align:top;">SERVER_PORT</td><td style="vertical-align:top;">:</td><td><div>8000</div></td></tr><tr><td style="font-weight:bold;vertical-align:top;">SERVER_PROTOCOL</td><td style="vertical-align:top;">:</td><td><div>HTTP/1.1</div></td></tr><tr><td style="font-weight:bold;vertical-align:top;">SERVER_SOFTWARE</td><td style="vertical-align:top;">:</td><td><div>Rocket 1.2.6</div></td></tr><tr><td style="font-weight:bold;vertical-align:top;">app_folders</td><td style="vertical-align:top;">:</td><td><div>set([&#x27;C:\\\\Users\\\\Miguel\\\\Documents\\\\4 periodo\\\\IBD\\\\web2py_win\\\\web2py\\\\applications\\\\evento&#x27;, &#x27;C:\\\\Users\\\\Miguel\\\\Documents\\\\4 periodo\\\\IBD\\\\web2py_win\\\\web2py\\\\applications\\\\admin&#x27;])</div></td></tr><tr><td style="font-weight:bold;vertical-align:top;">applications_parent</td><td style="vertical-align:top;">:</td><td><div>C:\\Users\\Miguel\\Documents\\4 periodo\\IBD\\web2py_win\\web2py</div></td></tr><tr><td style="font-weight:bold;vertical-align:top;">cmd_args</td><td style="vertical-align:top;">:</td><td><div><table></table></div></td></tr><tr><td style="font-weight:bold;vertical-align:top;">cmd_options</td><td style="vertical-align:top;">:</td><td><div>&lt;Values at 0x31cb738: {&#x27;verbose&#x27;: False, &#x27;ip&#x27;: &#x27;127.0.0.1&#x27;, &#x27;debuglevel&#x27;: 30, &#x27;with_scheduler&#x27;: False, &#x27;shutdown_timeout&#x27;: 5, &#x27;taskbar&#x27;: False, &#x27;with_coverage&#x27;: False, &#x27;pid_filename&#x27;: &#x27;httpserver.pid&#x27;, &#x27;maxthreads&#x27;: None, &#x27;softcron&#x27;: False, &#x27;server_name&#x27;: &#x27;DESKTOP-COI0HOF&#x27;, &#x27;bpython&#x27;: False, &#x27;nogui&#x27;: False, &#x27;port&#x27;: 8000, &#x27;print_errors&#x27;: False, &#x27;extcron&#x27;: False, &#x27;runcron&#x27;: False, &#x27;run_system_tests&#x27;: False, &#x27;test&#x27;: None, &#x27;folder&#x27;: &#x27;C:\\\\Users\\\\Miguel\\\\Documents\\\\4 periodo\\\\IBD\\\\web2py_win\\\\web2py&#x27;, &#x27;config&#x27;: &#x27;&#x27;, &#x27;minthreads&#x27;: None, &#x27;shell&#x27;: None, &#x27;run&#x27;: &#x27;&#x27;, &#x27;log_filename&#x27;: &#x27;httpserver.log&#x27;, &#x27;profiler_dir&#x27;: None, &#x27;args&#x27;: [], &#x27;socket_timeout&#x27;: 5, &#x27;ssl_ca_certificate&#x27;: None, &#x27;scheduler&#x27;: None, &#x27;interfaces&#x27;: None, &#x27;ssl_private_key&#x27;: &#x27;&#x27;, &#x27;gae&#x27;: None, &#x27;password&#x27;: &#x27;******&#x27;, &#x27;request_queue_size&#x27;: 5, &#x27;ssl_certificate&#x27;: &#x27;&#x27;, &#x27;cronjob&#x27;: False, &#x27;numthreads&#x27;: None, &#x27;quiet&#x27;: False, &#x27;import_models&#x27;: False, &#x27;timeout&#x27;: 10, &#x27;plain&#x27;: False, &#x27;nobanner&#x27;: False}&gt;</div></td></tr><tr><td style="font-weight:bold;vertical-align:top;">db_sessions</td><td style="vertical-align:top;">:</td><td><div>set([])</div></td></tr><tr><td style="font-weight:bold;vertical-align:top;">debugging</td><td style="vertical-align:top;">:</td><td><div>False</div></td></tr><tr><td style="font-weight:bold;vertical-align:top;">gluon_parent</td><td style="vertical-align:top;">:</td><td><div>C:\\Users\\Miguel\\Documents\\4 periodo\\IBD\\web2py_win\\web2py</div></td></tr><tr><td style="font-weight:bold;vertical-align:top;">http_accept</td><td style="vertical-align:top;">:</td><td><div>text/html,application/xhtml+xml,application/xml;q=0.9,image/webp,image/apng,*/*;q=0.8,application/signed-exchange;v=b3;q=0.9</div></td></tr><tr><td style="font-weight:bold;vertical-align:top;">http_accept_encoding</td><td style="vertical-align:top;">:</td><td><div>gzip, deflate, br</div></td></tr><tr><td style="font-weight:bold;vertical-align:top;">http_accept_language</td><td style="vertical-align:top;">:</td><td><div>en-US,en;q=0.9,pt;q=0.8</div></td></tr><tr><td style="font-weight:bold;vertical-align:top;">http_cache_control</td><td style="vertical-align:top;">:</td><td><div>max-age=0</div></td></tr><tr><td style="font-weight:bold;vertical-align:top;">http_connection</td><td style="vertical-align:top;">:</td><td><div>keep-alive</div></td></tr><tr><td style="font-weight:bold;vertical-align:top;">http_cookie</td><td style="vertical-align:top;">:</td><td><div>session_id_evento=127.0.0.1-6f62321e-4c16-433d-ab8f-d6d65b9c01ec; session_id_admin=127.0.0.1-5ddfdb21-4324-401b-a6f4-072b258086d4</div></td></tr><tr><td style="font-weight:bold;vertical-align:top;">http_host</td><td style="vertical-align:top;">:</td><td><div>127.0.0.1:8000</div></td></tr><tr><td style="font-weight:bold;vertical-align:top;">http_sec_fetch_mode</td><td style="vertical-align:top;">:</td><td><div>navigate</div></td></tr><tr><td style="font-weight:bold;vertical-align:top;">http_sec_fetch_site</td><td style="vertical-align:top;">:</td><td><div>none</div></td></tr><tr><td style="font-weight:bold;vertical-align:top;">http_sec_fetch_user</td><td style="vertical-align:top;">:</td><td><div>?1</div></td></tr><tr><td style="font-weight:bold;vertical-align:top;">http_upgrade_insecure_requests</td><td style="vertical-align:top;">:</td><td><div>1</div></td></tr><tr><td style="font-weight:bold;vertical-align:top;">http_user_agent</td><td style="vertical-align:top;">:</td><td><div>Mozilla/5.0 (Windows NT 10.0; Win64; x64) AppleWebKit/537.36 (KHTML, like Gecko) Chrome/79.0.3945.79 Safari/537.36</div></td></tr><tr><td style="font-weight:bold;vertical-align:top;">is_jython</td><td style="vertical-align:top;">:</td><td><div>False</div></td></tr><tr><td style="font-weight:bold;vertical-align:top;">is_py2</td><td style="vertical-align:top;">:</td><td><div>True</div></td></tr><tr><td style="font-weight:bold;vertical-align:top;">is_pypy</td><td style="vertical-align:top;">:</td><td><div>False</div></td></tr><tr><td style="font-weight:bold;vertical-align:top;">is_source</td><td style="vertical-align:top;">:</td><td><div>False</div></td></tr><tr><td style="font-weight:bold;vertical-align:top;">local_hosts</td><td style="vertical-align:top;">:</td><td><div><table><tr><td><div>DESKTOP-COI0HOF</div></td></tr><tr><td><div>2804:14d:1487:4254:f48b:b57:182d:ed3b</div></td></tr><tr><td><div>fe80::f48b:b57:182d:ed3b%3</div></td></tr><tr><td><div>::ffff:127.0.0.1</div></td></tr><tr><td><div>::1</div></td></tr><tr><td><div>192.168.0.12</div></td></tr><tr><td><div>2804:14d:1487:4254:9ccd:fdc5:9dff:8402</div></td></tr><tr><td><div>127.0.0.1</div></td></tr><tr><td><div>2804:14d:1487:4254::2</div></td></tr></table></div></td></tr><tr><td style="font-weight:bold;vertical-align:top;">path_info</td><td style="vertical-align:top;">:</td><td><div>/</div></td></tr><tr><td style="font-weight:bold;vertical-align:top;">query_string</td><td style="vertical-align:top;">:</td><td><div></div></td></tr><tr><td style="font-weight:bold;vertical-align:top;">remote_addr</td><td style="vertical-align:top;">:</td><td><div>127.0.0.1</div></td></tr><tr><td style="font-weight:bold;vertical-align:top;">remote_port</td><td style="vertical-align:top;">:</td><td><div>50763</div></td></tr><tr><td style="font-weight:bold;vertical-align:top;">request_method</td><td style="vertical-align:top;">:</td><td><div>GET</div></td></tr><tr><td style="font-weight:bold;vertical-align:top;">request_uri</td><td style="vertical-align:top;">:</td><td><div>/evento/default/home</div></td></tr><tr><td style="font-weight:bold;vertical-align:top;">script_name</td><td style="vertical-align:top;">:</td><td><div></div></td></tr><tr><td style="font-weight:bold;vertical-align:top;">server_name</td><td style="vertical-align:top;">:</td><td><div>DESKTOP-COI0HOF</div></td></tr><tr><td style="font-weight:bold;vertical-align:top;">server_port</td><td style="vertical-align:top;">:</td><td><div>8000</div></td></tr><tr><td style="font-weight:bold;vertical-align:top;">server_protocol</td><td style="vertical-align:top;">:</td><td><div>HTTP/1.1</div></td></tr><tr><td style="font-weight:bold;vertical-align:top;">server_software</td><td style="vertical-align:top;">:</td><td><div>Rocket 1.2.6</div></td></tr><tr><td style="font-weight:bold;vertical-align:top;">web2py_original_uri</td><td style="vertical-align:top;">:</td><td><div>/</div></td></tr><tr><td style="font-weight:bold;vertical-align:top;">web2py_path</td><td style="vertical-align:top;">:</td><td><div>C:\\Users\\Miguel\\Documents\\4 periodo\\IBD\\web2py_win\\web2py</div></td></tr><tr><td style="font-weight:bold;vertical-align:top;">web2py_version</td><td style="vertical-align:top;">:</td><td><div>2.18.5-stable+timestamp.2019.04.08.04.22.03</div></td></tr><tr><td style="font-weight:bold;vertical-align:top;">wsgi.errors</td><td style="vertical-align:top;">:</td><td><div>&lt;open file &#x27;&lt;stderr&gt;&#x27;, mode &#x27;w&#x27; at 0x020DD0D0&gt;</div></td></tr><tr><td style="font-weight:bold;vertical-align:top;">wsgi.file_wrapper</td><td style="vertical-align:top;">:</td><td><div>&lt;class wsgiref.util.FileWrapper at 0x033B39D0&gt;</div></td></tr><tr><td style="font-weight:bold;vertical-align:top;">wsgi.input</td><td style="vertical-align:top;">:</td><td><div>&lt;socket._fileobject object at 0x04FA86B0&gt;</div></td></tr><tr><td style="font-weight:bold;vertical-align:top;">wsgi.multiprocess</td><td style="vertical-align:top;">:</td><td><div>False</div></td></tr><tr><td style="font-weight:bold;vertical-align:top;">wsgi.multithread</td><td style="vertical-align:top;">:</td><td><div>True</div></td></tr><tr><td style="font-weight:bold;vertical-align:top;">wsgi.run_once</td><td style="vertical-align:top;">:</td><td><div>False</div></td></tr><tr><td style="font-weight:bold;vertical-align:top;">wsgi.url_scheme</td><td style="vertical-align:top;">:</td><td><div>http</div></td></tr><tr><td style="font-weight:bold;vertical-align:top;">wsgi.version</td><td style="vertical-align:top;">:</td><td><div><table><tr><td><div>1</div></td></tr><tr><td><div>0</div></td></tr></table></div></td></tr><tr><td style="font-weight:bold;vertical-align:top;">wsgi_errors</td><td style="vertical-align:top;">:</td><td><div>&lt;open file &#x27;&lt;stderr&gt;&#x27;, mode &#x27;w&#x27; at 0x020DD0D0&gt;</div></td></tr><tr><td style="font-weight:bold;vertical-align:top;">wsgi_file_wrapper</td><td style="vertical-align:top;">:</td><td><div>&lt;class wsgiref.util.FileWrapper at 0x033B39D0&gt;</div></td></tr><tr><td style="font-weight:bold;vertical-align:top;">wsgi_input</td><td style="vertical-align:top;">:</td><td><div>&lt;socket._fileobject object at 0x04FA86B0&gt;</div></td></tr><tr><td style="font-weight:bold;vertical-align:top;">wsgi_multiprocess</td><td style="vertical-align:top;">:</td><td><div>False</div></td></tr><tr><td style="font-weight:bold;vertical-align:top;">wsgi_multithread</td><td style="vertical-align:top;">:</td><td><div>True</div></td></tr><tr><td style="font-weight:bold;vertical-align:top;">wsgi_run_once</td><td style="vertical-align:top;">:</td><td><div>False</div></td></tr><tr><td style="font-weight:bold;vertical-align:top;">wsgi_url_scheme</td><td style="vertical-align:top;">:</td><td><div>http</div></td></tr><tr><td style="font-weight:bold;vertical-align:top;">wsgi_version</td><td style="vertical-align:top;">:</td><td><div><table><tr><td><div>1</div></td></tr><tr><td><div>0</div></td></tr></table></div></td></tr></table></div></td></tr><tr><td style="font-weight:bold;vertical-align:top;">extension</td><td style="vertical-align:top;">:</td><td><div>html</div></td></tr><tr><td style="font-weight:bold;vertical-align:top;">folder</td><td style="vertical-align:top;">:</td><td><div>C:\\Users\\Miguel\\Documents\\4 periodo\\IBD\\web2py_win\\web2py\\applications\\evento</div></td></tr><tr><td style="font-weight:bold;vertical-align:top;">function</td><td style="vertical-align:top;">:</td><td><div>home</div></td></tr><tr><td style="font-weight:bold;vertical-align:top;">global_settings</td><td style="vertical-align:top;">:</td><td><div><table><tr><td style="font-weight:bold;vertical-align:top;">app_folders</td><td style="vertical-align:top;">:</td><td><div>set([&#x27;C:\\\\Users\\\\Miguel\\\\Documents\\\\4 periodo\\\\IBD\\\\web2py_win\\\\web2py\\\\applications\\\\evento&#x27;, &#x27;C:\\\\Users\\\\Miguel\\\\Documents\\\\4 periodo\\\\IBD\\\\web2py_win\\\\web2py\\\\applications\\\\admin&#x27;])</div></td></tr><tr><td style="font-weight:bold;vertical-align:top;">applications_parent</td><td style="vertical-align:top;">:</td><td><div>C:\\Users\\Miguel\\Documents\\4 periodo\\IBD\\web2py_win\\web2py</div></td></tr><tr><td style="font-weight:bold;vertical-align:top;">cmd_args</td><td style="vertical-align:top;">:</td><td><div><table></table></div></td></tr><tr><td style="font-weight:bold;vertical-align:top;">cmd_options</td><td style="vertical-align:top;">:</td><td><div>&lt;Values at 0x31cb738: {&#x27;verbose&#x27;: False, &#x27;ip&#x27;: &#x27;127.0.0.1&#x27;, &#x27;debuglevel&#x27;: 30, &#x27;with_scheduler&#x27;: False, &#x27;shutdown_timeout&#x27;: 5, &#x27;taskbar&#x27;: False, &#x27;with_coverage&#x27;: False, &#x27;pid_filename&#x27;: &#x27;httpserver.pid&#x27;, &#x27;maxthreads&#x27;: None, &#x27;softcron&#x27;: False, &#x27;server_name&#x27;: &#x27;DESKTOP-COI0HOF&#x27;, &#x27;bpython&#x27;: False, &#x27;nogui&#x27;: False, &#x27;port&#x27;: 8000, &#x27;print_errors&#x27;: False, &#x27;extcron&#x27;: False, &#x27;runcron&#x27;: False, &#x27;run_system_tests&#x27;: False, &#x27;test&#x27;: None, &#x27;folder&#x27;: &#x27;C:\\\\Users\\\\Miguel\\\\Documents\\\\4 periodo\\\\IBD\\\\web2py_win\\\\web2py&#x27;, &#x27;config&#x27;: &#x27;&#x27;, &#x27;minthreads&#x27;: None, &#x27;shell&#x27;: None, &#x27;run&#x27;: &#x27;&#x27;, &#x27;log_filename&#x27;: &#x27;httpserver.log&#x27;, &#x27;profiler_dir&#x27;: None, &#x27;args&#x27;: [], &#x27;socket_timeout&#x27;: 5, &#x27;ssl_ca_certificate&#x27;: None, &#x27;scheduler&#x27;: None, &#x27;interfaces&#x27;: None, &#x27;ssl_private_key&#x27;: &#x27;&#x27;, &#x27;gae&#x27;: None, &#x27;password&#x27;: &#x27;******&#x27;, &#x27;request_queue_size&#x27;: 5, &#x27;ssl_certificate&#x27;: &#x27;&#x27;, &#x27;cronjob&#x27;: False, &#x27;numthreads&#x27;: None, &#x27;quiet&#x27;: False, &#x27;import_models&#x27;: False, &#x27;timeout&#x27;: 10, &#x27;plain&#x27;: False, &#x27;nobanner&#x27;: False}&gt;</div></td></tr><tr><td style="font-weight:bold;vertical-align:top;">db_sessions</td><td style="vertical-align:top;">:</td><td><div>set([])</div></td></tr><tr><td style="font-weight:bold;vertical-align:top;">debugging</td><td style="vertical-align:top;">:</td><td><div>False</div></td></tr><tr><td style="font-weight:bold;vertical-align:top;">gluon_parent</td><td style="vertical-align:top;">:</td><td><div>C:\\Users\\Miguel\\Documents\\4 periodo\\IBD\\web2py_win\\web2py</div></td></tr><tr><td style="font-weight:bold;vertical-align:top;">is_jython</td><td style="vertical-align:top;">:</td><td><div>False</div></td></tr><tr><td style="font-weight:bold;vertical-align:top;">is_py2</td><td style="vertical-align:top;">:</td><td><div>True</div></td></tr><tr><td style="font-weight:bold;vertical-align:top;">is_pypy</td><td style="vertical-align:top;">:</td><td><div>False</div></td></tr><tr><td style="font-weight:bold;vertical-align:top;">is_source</td><td style="vertical-align:top;">:</td><td><div>False</div></td></tr><tr><td style="font-weight:bold;vertical-align:top;">local_hosts</td><td style="vertical-align:top;">:</td><td><div><table><tr><td><div>DESKTOP-COI0HOF</div></td></tr><tr><td><div>2804:14d:1487:4254:f48b:b57:182d:ed3b</div></td></tr><tr><td><div>fe80::f48b:b57:182d:ed3b%3</div></td></tr><tr><td><div>::ffff:127.0.0.1</div></td></tr><tr><td><div>::1</div></td></tr><tr><td><div>192.168.0.12</div></td></tr><tr><td><div>2804:14d:1487:4254:9ccd:fdc5:9dff:8402</div></td></tr><tr><td><div>127.0.0.1</div></td></tr><tr><td><div>2804:14d:1487:4254::2</div></td></tr></table></div></td></tr><tr><td style="font-weight:bold;vertical-align:top;">web2py_version</td><td style="vertical-align:top;">:</td><td><div>2.18.5-stable+timestamp.2019.04.08.04.22.03</div></td></tr></table></div></td></tr><tr><td style="font-weight:bold;vertical-align:top;">is_https</td><td style="vertical-align:top;">:</td><td><div>False</div></td></tr><tr><td style="font-weight:bold;vertical-align:top;">is_local</td><td style="vertical-align:top;">:</td><td><div>True</div></td></tr><tr><td style="font-weight:bold;vertical-align:top;">is_restful</td><td style="vertical-align:top;">:</td><td><div>False</div></td></tr><tr><td style="font-weight:bold;vertical-align:top;">is_scheduler</td><td style="vertical-align:top;">:</td><td><div>False</div></td></tr><tr><td style="font-weight:bold;vertical-align:top;">is_shell</td><td style="vertical-align:top;">:</td><td><div>False</div></td></tr><tr><td style="font-weight:bold;vertical-align:top;">method</td><td style="vertical-align:top;">:</td><td><div>GET</div></td></tr><tr><td style="font-weight:bold;vertical-align:top;">now</td><td style="vertical-align:top;">:</td><td><div>datetime.datetime(2019, 12, 16, 23, 55, 17, 223000)</div></td></tr><tr><td style="font-weight:bold;vertical-align:top;">url</td><td style="vertical-align:top;">:</td><td><div>/</div></td></tr><tr><td style="font-weight:bold;vertical-align:top;">utcnow</td><td style="vertical-align:top;">:</td><td><div>datetime.datetime(2019, 12, 17, 3, 55, 17, 223000)</div></td></tr><tr><td style="font-weight:bold;vertical-align:top;">wsgi</td><td style="vertical-align:top;">:</td><td><div>&lt;gluon.main.LazyWSGI object at 0x08F4A2D0&gt;</div></td></tr></table></div>'
tRp60
sS'frames'
p61
(lp62
(dp63
S'file'
p64
S'C:\\Users\\Miguel\\Documents\\4 periodo\\IBD\\web2py_win\\web2py\\gluon\\restricted.py'
p65
sS'dump'
p66
(dp67
S'environment'
p68
S"{'A': <class 'gluon.html.A'>, 'ANY_OF': <class 'pydal.validators.ANY_OF'>, 'ASSIGNJS': <function ASSIGNJS>, 'AppConfig': <function AppConfig>, 'Auth': <class 'gluon.tools.Auth'>, 'B': <class 'gluon.html.B'>, 'BEAUTIFY': <class 'gluon.html.BEAUTIFY'>, 'BODY': <class 'gluon.html.BODY'>, 'BR': <class 'gluon.html.BR'>, 'BUTTON': <class 'gluon.html.BUTTON'>, ...}"
p69
sS'ccode'
p70
S'<code object <module> at 0548BD10, file "C:\\User...lications\\evento\\controllers/default.py", line 3>'
p71
ssS'lnum'
p72
I219
sS'lines'
p73
(dp74
I214
S'    if environment is None:'
p75
sI215
S'        environment = {}'
p76
sI216
S"    environment['__file__'] = layer"
p77
sI217
S"    environment['__name__'] = '__restricted__'"
p78
sI218
S'    try:'
p79
sI219
S'        exec(ccode, environment)'
p80
sI220
S'    except HTTP:'
p81
sI221
S'        raise'
p82
sI222
S'    except RestrictedError:'
p83
sI223
S'        # do not encapsulate (obfuscate) the original RestrictedError'
p84
ssS'call'
p85
S'(ccode=<code object <module> at 0548BD10, file "C:\\User...lications\\evento\\controllers/default.py", line 3>, environment={\'A\': <class \'gluon.html.A\'>, \'ANY_OF\': <class \'pydal.validators.ANY_OF\'>, \'ASSIGNJS\': <function ASSIGNJS>, \'AppConfig\': <function AppConfig>, \'Auth\': <class \'gluon.tools.Auth\'>, \'B\': <class \'gluon.html.B\'>, \'BEAUTIFY\': <class \'gluon.html.BEAUTIFY\'>, \'BODY\': <class \'gluon.html.BODY\'>, \'BR\': <class \'gluon.html.BR\'>, \'BUTTON\': <class \'gluon.html.BUTTON\'>, ...}, layer=r\'C:\\Users\\Miguel\\Documents\\4 periodo\\IBD\\web2py_win\\web2py\\applications\\evento\\controllers/default.py\', scode=<code object <module> at 0548BD10, file "C:\\User...lications\\evento\\controllers/default.py", line 3>)'
p86
sS'func'
p87
S'restricted'
p88
sa(dp89
g64
S'C:\\Users\\Miguel\\Documents\\4 periodo\\IBD\\web2py_win\\web2py\\applications\\evento\\controllers\\default.py'
p90
sg66
(dp91
sg72
I195
sg73
(dp92
I192
S'def wiki():'
p93
sI193
S'    auth.wikimenu() # add the wiki to the menu'
p94
sI194
S'    return auth.wiki()'
p95
sI185
S"    response.view = 'generic.html' # use a generic view"
p96
sI186
S'    tablename = request.args(0)'
p97
sI187
S'    if not tablename in db.tables: raise HTTP(403)'
p98
sI188
S'    grid = SQLFORM.smartgrid(db[tablename], args=[tablename], deletable=False, editable=False)'
p99
sI189
S'    return dict(grid=grid)'
p100
sI190
S''
sI191
S'# ---- Embedded wiki (example) ----'
p101
ssg85
S'()'
p102
sg87
S'<module>'
p103
sa(dp104
g64
S'C:\\Users\\Miguel\\Documents\\4 periodo\\IBD\\web2py_win\\web2py\\gluon\\globals.py'
p105
sg66
(dp106
S'self'
p107
S'undefined'
p108
sS'f'
S'<function home>'
p109
ssg72
I421
sg73
(dp110
I416
S"        self.flash = ''            # used by the default view layout"
p111
sI417
S'        self.meta = Storage()      # used by web2py_ajax.html'
p112
sI418
S'        self.menu = []             # used by the default view layout'
p113
sI419
S'        self.files = []            # used by web2py_ajax.html'
p114
sI420
S'        self._vars = None'
p115
sI421
S'        self._caller = lambda f: f()'
p116
sI422
S'        self._view_environment = None'
p117
sI423
S'        self._custom_commit = None'
p118
sI424
S'        self._custom_rollback = None'
p119
sI425
S"        self.generic_patterns = ['*']"
p120
ssg85
S'(f=<function home>)'
p121
sg87
S'<lambda>'
p122
sa(dp123
g64
S'C:\\Users\\Miguel\\Documents\\4 periodo\\IBD\\web2py_win\\web2py\\applications\\evento\\controllers\\default.py'
p124
sg66
(dp125
S'form'
p126
g108
ssg72
I24
sg73
(dp127
I19
S"\tlinks_t = ['Tag_Evento','Periodo','Lote']"
p128
sI20
S'\tlinks_c = [dict(header=\'Ingresso\', body= lambda row: A("comprar",callback=URL("default","comprar",args=[row.id]),target="_self" )),'
p129
sI21
S"\t\t\t   dict(header='Avaliacao', body = fun)]"
p130
sI22
S''
sI23
S'\tform = SQLFORM.smartgrid(db.Evento,deletable=False,linked_tables=links_t,'
p131
sI24
S'\t\t   links=links_c,create=False,csv=False,editable = False,user_signature=False)'
p132
sI25
S''
sI26
S'\tmsg = "Home de Eventos"'
p133
sI27
S'\treturn dict(msg=msg,grid=form)'
p134
sI28
S''
ssg85
S'()'
p135
sg87
S'home'
p136
sa(dp137
g64
S'C:\\Users\\Miguel\\Documents\\4 periodo\\IBD\\web2py_win\\web2py\\gluon\\sqlhtml.py'
p138
sg66
(dp139
S'user_signature'
p140
S'False'
p141
sS'kwargs'
p142
S"{'create': False, 'csv': False, 'deletable': False, 'editable': False}"
p143
ssg72
I3355
sg73
(dp144
I3350
S'                                A(SPAN(t), cid=request.cid, _href=url('
p145
sI3351
S'                                    args=[args0, row[id_field_name]])))'
p146
sI3352
S'        links += linked'
p147
sI3353
S'        grid = SQLFORM.grid(query, args=request.args[:nargs], links=links,'
p148
sI3354
S'                            links_in_grid=links_in_grid,'
p149
sI3355
S'                            user_signature=user_signature, **kwargs)'
p150
sI3356
S''
sI3357
S'        if isinstance(grid, DIV):'
p151
sI3358
S'            header = plural(table)'
p152
sI3359
S'            next = grid.create_form or grid.update_form or grid.view_form'
p153
ssg85
S"(table=<Table Evento (id, org_id, est_id, img, titulo, ...reated_on, created_by, modified_on, modified_by)>, constraints={}, linked_tables=['Tag_Evento', 'Periodo', 'Lote'], links=[{'body': <function <lambda>>, 'header': 'Ingresso'}, {'body': <function fun>, 'header': 'Avaliacao'}, <function <lambda>>, <function <lambda>>, <function <lambda>>], links_in_grid=True, args=[], user_signature=False, divider=u'\\xa0\\xa0>\\xa0\\xa0', breadcrumbs_class='', **kwargs={'create': False, 'csv': False, 'deletable': False, 'editable': False})"
p154
sg87
S'smartgrid'
p155
sa(dp156
g64
S'C:\\Users\\Miguel\\Documents\\4 periodo\\IBD\\web2py_win\\web2py\\gluon\\sqlhtml.py'
p157
sg66
(dp158
S'global TD'
p159
S"<class 'gluon.html.TD'>"
p160
sS'link'
p161
S"{'body': <function fun>, 'header': 'Avaliacao'}"
p162
sS'toadd'
p163
S'[<gluon.html.TD object>]'
p164
sS'toadd.append'
p165
S'<built-in method append of list object>'
p166
sS'row'
p167
S"<Row {'modified_by': 2L, 'participantes': 0L, 'i...'Formatura', 'id': 1L, 'descricao': 'Formatura'}>"
p168
ssg72
I3040
sg73
(dp169
I3040
S"                            toadd.append(TD(link['body'](row)))"
p170
sI3041
S'                        else:'
p171
sI3042
S'                            if link(row):'
p172
sI3043
S'                                row_buttons.append(link(row))'
p173
sI3044
S"                    if links_placement in ['right', 'both']:"
p174
sI3035
S"                row_buttons = TD(_class='row_buttons', _nowrap=True)"
p175
sI3036
S'                if links and links_in_grid:'
p176
sI3037
S'                    toadd = []'
p177
sI3038
S'                    for link in links:'
p178
sI3039
S'                        if isinstance(link, dict):'
p179
ssg85
S'(query=<Query ("Evento"."id" IS NOT NULL)>, fields=[<pydal.objects.Field object>, <pydal.objects.Field object>, <pydal.objects.Field object>, <pydal.objects.Field object>, <pydal.objects.Field object>, <pydal.objects.Field object>, <pydal.objects.Field object>, <pydal.objects.Field object>, <pydal.objects.Field object>, <pydal.objects.Field object>, <pydal.objects.Field object>, <pydal.objects.Field object>], field_id=<pydal.objects.Field object>, left=None, headers={}, orderby=<pydal.objects.Field object>, groupby=None, searchable=True, sortable=True, paginate=20, deletable=False, editable=False, details=True, selectable=None, create=False, csv=False, links=[{\'body\': <function <lambda>>, \'header\': \'Ingresso\'}, {\'body\': <function fun>, \'header\': \'Avaliacao\'}, <function <lambda>>, <function <lambda>>, <function <lambda>>], links_in_grid=True, upload=<function <lambda>>, args=[\'Evento\'], user_signature=False, maxtextlengths={}, maxtextlength=20, onvalidation=None, onfailure=None, oncreate=None, onupdate=None, ondelete=None, sorter_icons=(&#x25B2;, &#x25BC;), ui={\'button\': \'button btn btn-default btn-secondary\', \'buttonadd\': \'icon plus icon-plus glyphicon glyphicon-plus\', \'buttonback\': \'icon arrowleft icon-arrow-left glyphicon glyphicon-arrow-left\', \'buttondelete\': \'icon trash icon-trash glyphicon glyphicon-trash\', \'buttonedit\': \'icon pen icon-pencil glyphicon glyphicon-pencil\', \'buttonexport\': \'icon downarrow icon-download glyphicon glyphicon-download\', \'buttontable\': \'icon rightarrow icon-arrow-right glyphicon glyphicon-arrow-right\', \'buttontext\': \'buttontext button\', \'buttonview\': \'icon magnifier icon-zoom-in glyphicon glyphicon-zoom-in\', \'content\': \'\', ...}, showbuttontext=True, _class=\'web2py_grid\', formname=\'web2py_grid\', search_widget=<function <lambda>>, advanced_search=True, ignore_rw=False, formstyle=\'bootstrap4_inline\', exportclasses=None, formargs={}, createargs={}, editargs={}, viewargs={}, selectable_submit_button=\'Submit\', buttons_placement=\'right\', links_placement=\'right\', noconfirm=False, cache_count=None, client_side_delete=False, ignore_common_filters=None, auto_pagination=True, use_cursor=False, represent_none=None, showblobs=False)'
p180
sg87
S'grid'
p181
sa(dp182
g64
S'C:\\Users\\Miguel\\Documents\\4 periodo\\IBD\\web2py_win\\web2py\\applications\\evento\\controllers\\default.py'
p183
sg66
(dp184
S'body'
p185
g108
sS'db.Participacao'
p186
S'<Table Participacao (id, cli_id, eve_id, avaliacao, avaliou)>'
p187
sS'target'
p188
g108
sS'links_c'
p189
g108
sS'callback'
p190
g108
sS'builtinTrue'
p191
S'True'
p192
sS'args'
p193
g108
sS').select'
p194
g108
sS'global URL'
p195
S'<function URL>'
p196
sS'header'
p197
g108
sS'db.Participacao.eve_id'
p198
S'<pydal.objects.Field object>'
p199
sS'row.id'
p200
g108
sS'global db'
p201
S'<DAL uri="sqlite://storage.sqlite">'
p202
sS'db.Participacao.avaliou'
p203
S'<pydal.objects.Field object>'
p204
sS'global A'
p205
S"<class 'gluon.html.A'>"
p206
sS'builtindict'
p207
S"<type 'dict'>"
p208
sS'row'
p209
S"<Row {'avaliacao': 10.0}>"
p210
ssg72
I9
sg73
(dp211
I4
S'\tquery = db.Participacao.eve_id == row.id and db.Participacao.avaliou == True'
p212
sI5
S'\trows = avaliacao = db(query).select(db.Participacao.avaliacao)'
p213
sI6
S''
sI7
S'\tavaliacao = 0'
p214
sI8
S'\tfor row in rows:'
p215
sI9
S'\t\tavaliacao += row[0]'
p216
sI10
S''
sI11
S'\tif(len(rows) > 0):'
p217
sI12
S'\t\tavaliacao = avaliacao/len(rows)'
p218
sI13
S''
ssg85
S"(row=<Row {'avaliacao': 10.0}>)"
p219
sg87
S'fun'
p220
sa(dp221
g64
S'C:\\Users\\Miguel\\Documents\\4 periodo\\IBD\\web2py_win\\web2py\\gluon\\packages\\dal\\pydal\\objects.py'
p222
sg66
(dp223
S'key'
p224
S"'0'"
p225
sS'builtinKeyError'
p226
S"<type 'exceptions.KeyError'>"
p227
ssg72
I103
sg73
(dp228
I98
S"        lg = BasicStorage.get(self, '__get_lazy_reference__', None)"
p229
sI99
S'        if callable(lg):'
p230
sI100
S'            v = self[key] = lg(key)'
p231
sI101
S'            return v'
p232
sI102
S''
sI103
S'        raise KeyError(key)'
p233
sI104
S''
sI105
S"    __str__ = __repr__ = lambda self: '<Row %s>' % \\"
p234
sI106
S'        self.as_dict(custom_types=[LazySet])'
p235
sI107
S''
ssg85
S"(self=<Row {'avaliacao': 10.0}>, k=0)"
p236
sg87
g38
sasS'pyver'
p237
S'Python 2.7.9: C:\\Users\\Miguel\\Documents\\4 periodo\\IBD\\web2py_win\\web2py\\web2py.exe (prefix: )'
p238
sS'session'
p239
g59
(S's\x1a\x00\x00\x00<div><table></table></div>'
tRp240
sS'etype'
p241
S"<type 'exceptions.KeyError'>"
p242
sS'date'
p243
S'Mon Dec 16 23:55:17 2019'
p244
sS'response'
p245
g59
(S'sQ$\x00\x00<div><table><tr><td style="font-weight:bold;vertical-align:top;">body</td><td style="vertical-align:top;">:</td><td><div>&lt;cStringIO.StringO object at 0x08F4A460&gt;</div></td></tr><tr><td style="font-weight:bold;vertical-align:top;">cookies</td><td style="vertical-align:top;">:</td><td><div><table><tr><td style="font-weight:bold;vertical-align:top;">session_id_evento</td><td style="vertical-align:top;">:</td><td><div>127.0.0.1-6f62321e-4c16-433d-ab8f-d6d65b9c01ec<table><tr><td style="font-weight:bold;vertical-align:top;">comment</td><td style="vertical-align:top;">:</td><td><div></div></td></tr><tr><td style="font-weight:bold;vertical-align:top;">domain</td><td style="vertical-align:top;">:</td><td><div></div></td></tr><tr><td style="font-weight:bold;vertical-align:top;">expires</td><td style="vertical-align:top;">:</td><td><div></div></td></tr><tr><td style="font-weight:bold;vertical-align:top;">httponly</td><td style="vertical-align:top;">:</td><td><div></div></td></tr><tr><td style="font-weight:bold;vertical-align:top;">max-age</td><td style="vertical-align:top;">:</td><td><div></div></td></tr><tr><td style="font-weight:bold;vertical-align:top;">path</td><td style="vertical-align:top;">:</td><td><div>/</div></td></tr><tr><td style="font-weight:bold;vertical-align:top;">samesite</td><td style="vertical-align:top;">:</td><td><div></div></td></tr><tr><td style="font-weight:bold;vertical-align:top;">secure</td><td style="vertical-align:top;">:</td><td><div></div></td></tr><tr><td style="font-weight:bold;vertical-align:top;">version</td><td style="vertical-align:top;">:</td><td><div></div></td></tr></table></div></td></tr></table></div></td></tr><tr><td style="font-weight:bold;vertical-align:top;">delimiters</td><td style="vertical-align:top;">:</td><td><div><table><tr><td><div>{{</div></td></tr><tr><td><div>}}</div></td></tr></table></div></td></tr><tr><td style="font-weight:bold;vertical-align:top;">files</td><td style="vertical-align:top;">:</td><td><div><table></table></div></td></tr><tr><td style="font-weight:bold;vertical-align:top;">flash</td><td style="vertical-align:top;">:</td><td><div></div></td></tr><tr><td style="font-weight:bold;vertical-align:top;">form_label_separator</td><td style="vertical-align:top;">:</td><td><div></div></td></tr><tr><td style="font-weight:bold;vertical-align:top;">formstyle</td><td style="vertical-align:top;">:</td><td><div>bootstrap4_inline</div></td></tr><tr><td style="font-weight:bold;vertical-align:top;">generic_patterns</td><td style="vertical-align:top;">:</td><td><div><table><tr><td><div>*</div></td></tr></table></div></td></tr><tr><td style="font-weight:bold;vertical-align:top;">google_analytics_id</td><td style="vertical-align:top;">:</td><td><div>None</div></td></tr><tr><td style="font-weight:bold;vertical-align:top;">headers</td><td style="vertical-align:top;">:</td><td><div><table><tr><td style="font-weight:bold;vertical-align:top;">X-Powered-By</td><td style="vertical-align:top;">:</td><td><div>web2py</div></td></tr></table></div></td></tr><tr><td style="font-weight:bold;vertical-align:top;">menu</td><td style="vertical-align:top;">:</td><td><div><table><tr><td><div><table><tr><td><div>Home</div></td></tr><tr><td><div>False</div></td></tr><tr><td><div>/</div></td></tr><tr><td><div><table></table></div></td></tr></table></div></td></tr><tr><td><div><table><tr><td><div>Meus Eventos</div></td></tr><tr><td><div>False</div></td></tr><tr><td><div>/meus_eventos</div></td></tr><tr><td><div><table></table></div></td></tr></table></div></td></tr><tr><td><div><table><tr><td><div>Criar Evento</div></td></tr><tr><td><div>False</div></td></tr><tr><td><div>/criar_evento</div></td></tr><tr><td><div><table></table></div></td></tr></table></div></td></tr><tr><td><div><table><tr><td><div>Meus Perfil</div></td></tr><tr><td><div>False</div></td></tr><tr><td><div>/</div></td></tr><tr><td><div><table><tr><td><div><table><tr><td><div>Usuario</div></td></tr><tr><td><div>False</div></td></tr><tr><td><div>/default/user/profile</div></td></tr><tr><td><div>[]</div></td></tr></table></div></td></tr><tr><td><div><table><tr><td><div>Cliete</div></td></tr><tr><td><div>False</div></td></tr><tr><td><div>/cliente</div></td></tr><tr><td><div>[]</div></td></tr></table></div></td></tr><tr><td><div><table><tr><td><div>Organizacao</div></td></tr><tr><td><div>False</div></td></tr><tr><td><div>/organizacao</div></td></tr><tr><td><div>[]</div></td></tr></table></div></td></tr></table></div></td></tr></table></div></td></tr><tr><td><div><table><tr><td><div>Relatorios</div></td></tr><tr><td><div>False</div></td></tr><tr><td><div>/</div></td></tr><tr><td><div><table><tr><td><div><table><tr><td><div>Relatorio Tags</div></td></tr><tr><td><div>False</div></td></tr><tr><td><div>/tag</div></td></tr><tr><td><div>[]</div></td></tr></table></div></td></tr><tr><td><div><table><tr><td><div>Relatorio Clientes</div></td></tr><tr><td><div>False</div></td></tr><tr><td><div>/cliente</div></td></tr><tr><td><div>[]</div></td></tr></table></div></td></tr><tr><td><div><table><tr><td><div>Relatorio Intervalos</div></td></tr><tr><td><div>False</div></td></tr><tr><td><div>/intevalo</div></td></tr><tr><td><div>[]</div></td></tr></table></div></td></tr></table></div></td></tr></table></div></td></tr></table></div></td></tr><tr><td style="font-weight:bold;vertical-align:top;">meta</td><td style="vertical-align:top;">:</td><td><div><table><tr><td style="font-weight:bold;vertical-align:top;">author</td><td style="vertical-align:top;">:</td><td><div>Your Name &lt;you@example.com&gt;</div></td></tr><tr><td style="font-weight:bold;vertical-align:top;">description</td><td style="vertical-align:top;">:</td><td><div>a cool new app</div></td></tr><tr><td style="font-weight:bold;vertical-align:top;">generator</td><td style="vertical-align:top;">:</td><td><div>Web2py Web Framework</div></td></tr><tr><td style="font-weight:bold;vertical-align:top;">keywords</td><td style="vertical-align:top;">:</td><td><div><table><tr><td><div>web2py</div></td></tr><tr><td><div>python</div></td></tr><tr><td><div>framework</div></td></tr></table></div></td></tr></table></div></td></tr><tr><td style="font-weight:bold;vertical-align:top;">models_to_run</td><td style="vertical-align:top;">:</td><td><div><table><tr><td><div>^\\w+\\.py$</div></td></tr><tr><td><div>^default/\\w+\\.py$</div></td></tr><tr><td><div>^default/home/\\w+\\.py$</div></td></tr></table></div></td></tr><tr><td style="font-weight:bold;vertical-align:top;">postprocessing</td><td style="vertical-align:top;">:</td><td><div><table></table></div></td></tr><tr><td style="font-weight:bold;vertical-align:top;">session_client</td><td style="vertical-align:top;">:</td><td><div>127.0.0.1</div></td></tr><tr><td style="font-weight:bold;vertical-align:top;">session_cookie_compression_level</td><td style="vertical-align:top;">:</td><td><div>None</div></td></tr><tr><td style="font-weight:bold;vertical-align:top;">session_cookie_expires</td><td style="vertical-align:top;">:</td><td><div>None</div></td></tr><tr><td style="font-weight:bold;vertical-align:top;">session_data_name</td><td style="vertical-align:top;">:</td><td><div>session_data_evento</div></td></tr><tr><td style="font-weight:bold;vertical-align:top;">session_file</td><td style="vertical-align:top;">:</td><td><div>&lt;open file &#x27;C:\\\\Users\\\\Miguel\\\\Documents\\\\4 periodo\\\\IBD\\\\web2py_win\\\\web2py\\\\applications\\\\evento\\\\sessions\\\\00a\\\\125\\\\127.0.0.1-6f62321e-4c16-433d-ab8f-d6d65b9c01ec&#x27;, mode &#x27;rb+&#x27; at 0x051835A0&gt;</div></td></tr><tr><td style="font-weight:bold;vertical-align:top;">session_filename</td><td style="vertical-align:top;">:</td><td><div>C:\\Users\\Miguel\\Documents\\4 periodo\\IBD\\web2py_win\\web2py\\applications\\evento\\sessions\\127.0.0.1-6f62321e-4c16-433d-ab8f-d6d65b9c01ec</div></td></tr><tr><td style="font-weight:bold;vertical-align:top;">session_hash</td><td style="vertical-align:top;">:</td><td><div>d6af4cb954ccc0350b2db164d015f283</div></td></tr><tr><td style="font-weight:bold;vertical-align:top;">session_id</td><td style="vertical-align:top;">:</td><td><div>127.0.0.1-6f62321e-4c16-433d-ab8f-d6d65b9c01ec</div></td></tr><tr><td style="font-weight:bold;vertical-align:top;">session_id_name</td><td style="vertical-align:top;">:</td><td><div>session_id_evento</div></td></tr><tr><td style="font-weight:bold;vertical-align:top;">session_locked</td><td style="vertical-align:top;">:</td><td><div>True</div></td></tr><tr><td style="font-weight:bold;vertical-align:top;">session_masterapp</td><td style="vertical-align:top;">:</td><td><div>evento</div></td></tr><tr><td style="font-weight:bold;vertical-align:top;">session_new</td><td style="vertical-align:top;">:</td><td><div>False</div></td></tr><tr><td style="font-weight:bold;vertical-align:top;">session_storage_type</td><td style="vertical-align:top;">:</td><td><div>file</div></td></tr><tr><td style="font-weight:bold;vertical-align:top;">show_toolbar</td><td style="vertical-align:top;">:</td><td><div>True</div></td></tr><tr><td style="font-weight:bold;vertical-align:top;">status</td><td style="vertical-align:top;">:</td><td><div>200</div></td></tr><tr><td style="font-weight:bold;vertical-align:top;">view</td><td style="vertical-align:top;">:</td><td><div>default/home.html</div></td></tr></table></div>'
tRp246
sS'locals'
p247
(dp248
S'lg'
p249
S'None'
p250
sS'k'
S'0'
sS'm'
S'None'
p251
sS'_extra'
p252
S'None'
p253
sS'key'
p254
S"'0'"
p255
sS'self'
p256
S"<Row {'avaliacao': 10.0}>"
p257
sssS'traceback'
p258
S'Traceback (most recent call last):\n  File "C:\\Users\\Miguel\\Documents\\4 periodo\\IBD\\web2py_win\\web2py\\gluon\\restricted.py", line 219, in restricted\n    exec(ccode, environment)\n  File "C:\\Users\\Miguel\\Documents\\4 periodo\\IBD\\web2py_win\\web2py\\applications\\evento\\controllers/default.py", line 195, in <module>\n  File "C:\\Users\\Miguel\\Documents\\4 periodo\\IBD\\web2py_win\\web2py\\gluon\\globals.py", line 421, in <lambda>\n    self._caller = lambda f: f()\n  File "C:\\Users\\Miguel\\Documents\\4 periodo\\IBD\\web2py_win\\web2py\\applications\\evento\\controllers/default.py", line 24, in home\n    links=links_c,create=False,csv=False,editable = False,user_signature=False)\n  File "C:\\Users\\Miguel\\Documents\\4 periodo\\IBD\\web2py_win\\web2py\\gluon\\sqlhtml.py", line 3355, in smartgrid\n    user_signature=user_signature, **kwargs)\n  File "C:\\Users\\Miguel\\Documents\\4 periodo\\IBD\\web2py_win\\web2py\\gluon\\sqlhtml.py", line 3040, in grid\n    toadd.append(TD(link[\'body\'](row)))\n  File "C:\\Users\\Miguel\\Documents\\4 periodo\\IBD\\web2py_win\\web2py\\applications\\evento\\controllers/default.py", line 9, in fun\n    avaliacao += row[0]\n  File "C:\\Users\\Miguel\\Documents\\4 periodo\\IBD\\web2py_win\\web2py\\gluon\\packages\\dal\\pydal\\objects.py", line 103, in __getitem__\n    raise KeyError(key)\nKeyError: \'0\'\n'
p259
s.