(dp1
S'output'
p2
S"<type 'exceptions.NameError'> global name 'field' is not defined"
p3
sS'layer'
p4
S'C:\\Users\\Miguel\\Documents\\4 periodo\\IBD\\web2py_win\\web2py\\applications\\evento\\controllers/default.py'
p5
sS'code'
p6
S'<code object <module> at 04668380, file "C:\\Users\\Miguel\\Documents\\4 periodo\\IBD\\web2py_win\\web2py\\applications\\evento\\controllers/default.py", line 3>'
p7
sS'snapshot'
p8
(dp9
sS'traceback'
p10
S'Traceback (most recent call last):\n  File "C:\\Users\\Miguel\\Documents\\4 periodo\\IBD\\web2py_win\\web2py\\gluon\\restricted.py", line 219, in restricted\n    exec(ccode, environment)\n  File "C:\\Users\\Miguel\\Documents\\4 periodo\\IBD\\web2py_win\\web2py\\applications\\evento\\controllers/default.py", line 422, in <module>\n  File "C:\\Users\\Miguel\\Documents\\4 periodo\\IBD\\web2py_win\\web2py\\gluon\\globals.py", line 421, in <lambda>\n    self._caller = lambda f: f()\n  File "C:\\Users\\Miguel\\Documents\\4 periodo\\IBD\\web2py_win\\web2py\\applications\\evento\\controllers/default.py", line 381, in tag\n    form = SQLFORM.grid(db.Evento and query,fields=field,csv=False)\nNameError: global name \'field\' is not defined\n'
p11
s.