(dp1
S'output'
p2
S"<type 'exceptions.NameError'> name 'IS_EMPTY' is not defined"
p3
sS'layer'
p4
S'C:\\Users\\Miguel\\Documents\\4 periodo\\IBD\\web2py_win\\web2py\\applications\\evento\\models\\validators.py'
p5
sS'code'
p6
S'<code object <module> at 0936A338, file "C:\\Users\\Miguel\\Documents\\4 periodo\\IBD\\web2py_win\\web2py\\applications\\evento\\models\\validators.py", line 3>'
p7
sS'snapshot'
p8
(dp9
S'exception'
p10
(dp11
S'__getslice__'
p12
S"<method-wrapper '__getslice__' of exceptions.NameError object>"
p13
sS'__str__'
p14
S"<method-wrapper '__str__' of exceptions.NameError object>"
p15
sS'__reduce__'
p16
S'<built-in method __reduce__ of exceptions.NameError object>'
p17
sS'__dict__'
p18
S'{}'
p19
sS'message'
p20
S'"name \'IS_EMPTY\' is not defined"'
p21
sS'__sizeof__'
p22
S'<built-in method __sizeof__ of exceptions.NameError object>'
p23
sS'__init__'
p24
S"<method-wrapper '__init__' of exceptions.NameError object>"
p25
sS'__setattr__'
p26
S"<method-wrapper '__setattr__' of exceptions.NameError object>"
p27
sS'__reduce_ex__'
p28
S'<built-in method __reduce_ex__ of exceptions.NameError object>'
p29
sS'__new__'
p30
S'<built-in method __new__ of type object>'
p31
sS'__format__'
p32
S'<built-in method __format__ of exceptions.NameError object>'
p33
sS'__class__'
p34
S"<type 'exceptions.NameError'>"
p35
sS'__doc__'
p36
S"'Name not found globally.'"
p37
sS'__getitem__'
p38
S"<method-wrapper '__getitem__' of exceptions.NameError object>"
p39
sS'__setstate__'
p40
S'<built-in method __setstate__ of exceptions.NameError object>'
p41
sS'__getattribute__'
p42
S"<method-wrapper '__getattribute__' of exceptions.NameError object>"
p43
sS'args'
p44
S'("name \'IS_EMPTY\' is not defined",)'
p45
sS'__subclasshook__'
p46
S'<built-in method __subclasshook__ of type object>'
p47
sS'__unicode__'
p48
S'<built-in method __unicode__ of exceptions.NameError object>'
p49
sS'__delattr__'
p50
S"<method-wrapper '__delattr__' of exceptions.NameError object>"
p51
sS'__repr__'
p52
S"<method-wrapper '__repr__' of exceptions.NameError object>"
p53
sS'__hash__'
p54
S"<method-wrapper '__hash__' of exceptions.NameError object>"
p55
ssS'evalue'
p56
S"name 'IS_EMPTY' is not defined"
p57
sS'request'
p58
cgluon.html
XML_unpickle
p59
(S's\xb0f\x00\x00<div><table><tr><td style="font-weight:bold;vertical-align:top;">ajax</td><td style="vertical-align:top;">:</td><td><div>False</div></td></tr><tr><td style="font-weight:bold;vertical-align:top;">application</td><td style="vertical-align:top;">:</td><td><div>evento</div></td></tr><tr><td style="font-weight:bold;vertical-align:top;">args</td><td style="vertical-align:top;">:</td><td><div><table></table></div></td></tr><tr><td style="font-weight:bold;vertical-align:top;">cid</td><td style="vertical-align:top;">:</td><td><div>None</div></td></tr><tr><td style="font-weight:bold;vertical-align:top;">client</td><td style="vertical-align:top;">:</td><td><div>127.0.0.1</div></td></tr><tr><td style="font-weight:bold;vertical-align:top;">controller</td><td style="vertical-align:top;">:</td><td><div>default</div></td></tr><tr><td style="font-weight:bold;vertical-align:top;">cookies</td><td style="vertical-align:top;">:</td><td><div><table><tr><td style="font-weight:bold;vertical-align:top;">session_id_admin</td><td style="vertical-align:top;">:</td><td><div>127.0.0.1-4f0c44b5-9bb6-4bc6-b787-0b3841f541ab<table><tr><td style="font-weight:bold;vertical-align:top;">comment</td><td style="vertical-align:top;">:</td><td><div></div></td></tr><tr><td style="font-weight:bold;vertical-align:top;">domain</td><td style="vertical-align:top;">:</td><td><div></div></td></tr><tr><td style="font-weight:bold;vertical-align:top;">expires</td><td style="vertical-align:top;">:</td><td><div></div></td></tr><tr><td style="font-weight:bold;vertical-align:top;">httponly</td><td style="vertical-align:top;">:</td><td><div></div></td></tr><tr><td style="font-weight:bold;vertical-align:top;">max-age</td><td style="vertical-align:top;">:</td><td><div></div></td></tr><tr><td style="font-weight:bold;vertical-align:top;">path</td><td style="vertical-align:top;">:</td><td><div></div></td></tr><tr><td style="font-weight:bold;vertical-align:top;">samesite</td><td style="vertical-align:top;">:</td><td><div></div></td></tr><tr><td style="font-weight:bold;vertical-align:top;">secure</td><td style="vertical-align:top;">:</td><td><div></div></td></tr><tr><td style="font-weight:bold;vertical-align:top;">version</td><td style="vertical-align:top;">:</td><td><div></div></td></tr></table></div></td></tr><tr><td style="font-weight:bold;vertical-align:top;">session_id_evento</td><td style="vertical-align:top;">:</td><td><div>127.0.0.1-0bffe370-dce3-4021-9cac-a468bd6544dc<table><tr><td style="font-weight:bold;vertical-align:top;">comment</td><td style="vertical-align:top;">:</td><td><div></div></td></tr><tr><td style="font-weight:bold;vertical-align:top;">domain</td><td style="vertical-align:top;">:</td><td><div></div></td></tr><tr><td style="font-weight:bold;vertical-align:top;">expires</td><td style="vertical-align:top;">:</td><td><div></div></td></tr><tr><td style="font-weight:bold;vertical-align:top;">httponly</td><td style="vertical-align:top;">:</td><td><div></div></td></tr><tr><td style="font-weight:bold;vertical-align:top;">max-age</td><td style="vertical-align:top;">:</td><td><div></div></td></tr><tr><td style="font-weight:bold;vertical-align:top;">path</td><td style="vertical-align:top;">:</td><td><div></div></td></tr><tr><td style="font-weight:bold;vertical-align:top;">samesite</td><td style="vertical-align:top;">:</td><td><div></div></td></tr><tr><td style="font-weight:bold;vertical-align:top;">secure</td><td style="vertical-align:top;">:</td><td><div></div></td></tr><tr><td style="font-weight:bold;vertical-align:top;">version</td><td style="vertical-align:top;">:</td><td><div></div></td></tr></table></div></td></tr></table></div></td></tr><tr><td style="font-weight:bold;vertical-align:top;">env</td><td style="vertical-align:top;">:</td><td><div><table><tr><td style="font-weight:bold;vertical-align:top;">CONTENT_LENGTH</td><td style="vertical-align:top;">:</td><td><div>381</div></td></tr><tr><td style="font-weight:bold;vertical-align:top;">CONTENT_TYPE</td><td style="vertical-align:top;">:</td><td><div>multipart/form-data; boundary=----WebKitFormBoundaryWiOGy9UUeek5BX1C</div></td></tr><tr><td style="font-weight:bold;vertical-align:top;">HTTP_ACCEPT</td><td style="vertical-align:top;">:</td><td><div>text/html,application/xhtml+xml,application/xml;q=0.9,image/webp,image/apng,*/*;q=0.8,application/signed-exchange;v=b3;q=0.9</div></td></tr><tr><td style="font-weight:bold;vertical-align:top;">HTTP_ACCEPT_ENCODING</td><td style="vertical-align:top;">:</td><td><div>gzip, deflate, br</div></td></tr><tr><td style="font-weight:bold;vertical-align:top;">HTTP_ACCEPT_LANGUAGE</td><td style="vertical-align:top;">:</td><td><div>en-US,en;q=0.9,pt;q=0.8</div></td></tr><tr><td style="font-weight:bold;vertical-align:top;">HTTP_CACHE_CONTROL</td><td style="vertical-align:top;">:</td><td><div>max-age=0</div></td></tr><tr><td style="font-weight:bold;vertical-align:top;">HTTP_CONNECTION</td><td style="vertical-align:top;">:</td><td><div>keep-alive</div></td></tr><tr><td style="font-weight:bold;vertical-align:top;">HTTP_CONTENT_LENGTH</td><td style="vertical-align:top;">:</td><td><div>381</div></td></tr><tr><td style="font-weight:bold;vertical-align:top;">HTTP_CONTENT_TYPE</td><td style="vertical-align:top;">:</td><td><div>multipart/form-data; boundary=----WebKitFormBoundaryWiOGy9UUeek5BX1C</div></td></tr><tr><td style="font-weight:bold;vertical-align:top;">HTTP_COOKIE</td><td style="vertical-align:top;">:</td><td><div>session_id_evento=127.0.0.1-0bffe370-dce3-4021-9cac-a468bd6544dc; session_id_admin=127.0.0.1-4f0c44b5-9bb6-4bc6-b787-0b3841f541ab</div></td></tr><tr><td style="font-weight:bold;vertical-align:top;">HTTP_HOST</td><td style="vertical-align:top;">:</td><td><div>127.0.0.1:8000</div></td></tr><tr><td style="font-weight:bold;vertical-align:top;">HTTP_ORIGIN</td><td style="vertical-align:top;">:</td><td><div>http://127.0.0.1:8000</div></td></tr><tr><td style="font-weight:bold;vertical-align:top;">HTTP_REFERER</td><td style="vertical-align:top;">:</td><td><div>http://127.0.0.1:8000/cadastro_Tags</div></td></tr><tr><td style="font-weight:bold;vertical-align:top;">HTTP_SEC_FETCH_MODE</td><td style="vertical-align:top;">:</td><td><div>navigate</div></td></tr><tr><td style="font-weight:bold;vertical-align:top;">HTTP_SEC_FETCH_SITE</td><td style="vertical-align:top;">:</td><td><div>same-origin</div></td></tr><tr><td style="font-weight:bold;vertical-align:top;">HTTP_SEC_FETCH_USER</td><td style="vertical-align:top;">:</td><td><div>?1</div></td></tr><tr><td style="font-weight:bold;vertical-align:top;">HTTP_UPGRADE_INSECURE_REQUESTS</td><td style="vertical-align:top;">:</td><td><div>1</div></td></tr><tr><td style="font-weight:bold;vertical-align:top;">HTTP_USER_AGENT</td><td style="vertical-align:top;">:</td><td><div>Mozilla/5.0 (Windows NT 10.0; Win64; x64) AppleWebKit/537.36 (KHTML, like Gecko) Chrome/79.0.3945.79 Safari/537.36</div></td></tr><tr><td style="font-weight:bold;vertical-align:top;">PATH_INFO</td><td style="vertical-align:top;">:</td><td><div>/cadastro_Tags</div></td></tr><tr><td style="font-weight:bold;vertical-align:top;">QUERY_STRING</td><td style="vertical-align:top;">:</td><td><div></div></td></tr><tr><td style="font-weight:bold;vertical-align:top;">REMOTE_ADDR</td><td style="vertical-align:top;">:</td><td><div>127.0.0.1</div></td></tr><tr><td style="font-weight:bold;vertical-align:top;">REMOTE_PORT</td><td style="vertical-align:top;">:</td><td><div>51954</div></td></tr><tr><td style="font-weight:bold;vertical-align:top;">REQUEST_METHOD</td><td style="vertical-align:top;">:</td><td><div>POST</div></td></tr><tr><td style="font-weight:bold;vertical-align:top;">SCRIPT_NAME</td><td style="vertical-align:top;">:</td><td><div></div></td></tr><tr><td style="font-weight:bold;vertical-align:top;">SERVER_NAME</td><td style="vertical-align:top;">:</td><td><div>DESKTOP-COI0HOF</div></td></tr><tr><td style="font-weight:bold;vertical-align:top;">SERVER_PORT</td><td style="vertical-align:top;">:</td><td><div>8000</div></td></tr><tr><td style="font-weight:bold;vertical-align:top;">SERVER_PROTOCOL</td><td style="vertical-align:top;">:</td><td><div>HTTP/1.1</div></td></tr><tr><td style="font-weight:bold;vertical-align:top;">SERVER_SOFTWARE</td><td style="vertical-align:top;">:</td><td><div>Rocket 1.2.6</div></td></tr><tr><td style="font-weight:bold;vertical-align:top;">app_folders</td><td style="vertical-align:top;">:</td><td><div>set([&#x27;C:\\\\Users\\\\Miguel\\\\Documents\\\\4 periodo\\\\IBD\\\\web2py_win\\\\web2py\\\\applications\\\\evento&#x27;, &#x27;C:\\\\Users\\\\Miguel\\\\Documents\\\\4 periodo\\\\IBD\\\\web2py_win\\\\web2py\\\\applications\\\\admin&#x27;])</div></td></tr><tr><td style="font-weight:bold;vertical-align:top;">applications_parent</td><td style="vertical-align:top;">:</td><td><div>C:\\Users\\Miguel\\Documents\\4 periodo\\IBD\\web2py_win\\web2py</div></td></tr><tr><td style="font-weight:bold;vertical-align:top;">cmd_args</td><td style="vertical-align:top;">:</td><td><div><table></table></div></td></tr><tr><td style="font-weight:bold;vertical-align:top;">cmd_options</td><td style="vertical-align:top;">:</td><td><div>&lt;Values at 0x3207760: {&#x27;verbose&#x27;: False, &#x27;ip&#x27;: &#x27;127.0.0.1&#x27;, &#x27;debuglevel&#x27;: 30, &#x27;with_scheduler&#x27;: False, &#x27;shutdown_timeout&#x27;: 5, &#x27;taskbar&#x27;: False, &#x27;with_coverage&#x27;: False, &#x27;pid_filename&#x27;: &#x27;httpserver.pid&#x27;, &#x27;maxthreads&#x27;: None, &#x27;softcron&#x27;: False, &#x27;server_name&#x27;: &#x27;DESKTOP-COI0HOF&#x27;, &#x27;bpython&#x27;: False, &#x27;nogui&#x27;: False, &#x27;port&#x27;: 8000, &#x27;print_errors&#x27;: False, &#x27;extcron&#x27;: False, &#x27;runcron&#x27;: False, &#x27;run_system_tests&#x27;: False, &#x27;test&#x27;: None, &#x27;folder&#x27;: &#x27;C:\\\\Users\\\\Miguel\\\\Documents\\\\4 periodo\\\\IBD\\\\web2py_win\\\\web2py&#x27;, &#x27;config&#x27;: &#x27;&#x27;, &#x27;minthreads&#x27;: None, &#x27;shell&#x27;: None, &#x27;run&#x27;: &#x27;&#x27;, &#x27;log_filename&#x27;: &#x27;httpserver.log&#x27;, &#x27;profiler_dir&#x27;: None, &#x27;args&#x27;: [], &#x27;socket_timeout&#x27;: 5, &#x27;ssl_ca_certificate&#x27;: None, &#x27;scheduler&#x27;: None, &#x27;interfaces&#x27;: None, &#x27;ssl_private_key&#x27;: &#x27;&#x27;, &#x27;gae&#x27;: None, &#x27;password&#x27;: &#x27;******&#x27;, &#x27;request_queue_size&#x27;: 5, &#x27;ssl_certificate&#x27;: &#x27;&#x27;, &#x27;cronjob&#x27;: False, &#x27;numthreads&#x27;: None, &#x27;quiet&#x27;: False, &#x27;import_models&#x27;: False, &#x27;timeout&#x27;: 10, &#x27;plain&#x27;: False, &#x27;nobanner&#x27;: False}&gt;</div></td></tr><tr><td style="font-weight:bold;vertical-align:top;">content_length</td><td style="vertical-align:top;">:</td><td><div>381</div></td></tr><tr><td style="font-weight:bold;vertical-align:top;">content_type</td><td style="vertical-align:top;">:</td><td><div>multipart/form-data; boundary=----WebKitFormBoundaryWiOGy9UUeek5BX1C</div></td></tr><tr><td style="font-weight:bold;vertical-align:top;">db_sessions</td><td style="vertical-align:top;">:</td><td><div>set([])</div></td></tr><tr><td style="font-weight:bold;vertical-align:top;">debugging</td><td style="vertical-align:top;">:</td><td><div>False</div></td></tr><tr><td style="font-weight:bold;vertical-align:top;">gluon_parent</td><td style="vertical-align:top;">:</td><td><div>C:\\Users\\Miguel\\Documents\\4 periodo\\IBD\\web2py_win\\web2py</div></td></tr><tr><td style="font-weight:bold;vertical-align:top;">http_accept</td><td style="vertical-align:top;">:</td><td><div>text/html,application/xhtml+xml,application/xml;q=0.9,image/webp,image/apng,*/*;q=0.8,application/signed-exchange;v=b3;q=0.9</div></td></tr><tr><td style="font-weight:bold;vertical-align:top;">http_accept_encoding</td><td style="vertical-align:top;">:</td><td><div>gzip, deflate, br</div></td></tr><tr><td style="font-weight:bold;vertical-align:top;">http_accept_language</td><td style="vertical-align:top;">:</td><td><div>en-US,en;q=0.9,pt;q=0.8</div></td></tr><tr><td style="font-weight:bold;vertical-align:top;">http_cache_control</td><td style="vertical-align:top;">:</td><td><div>max-age=0</div></td></tr><tr><td style="font-weight:bold;vertical-align:top;">http_connection</td><td style="vertical-align:top;">:</td><td><div>keep-alive</div></td></tr><tr><td style="font-weight:bold;vertical-align:top;">http_content_length</td><td style="vertical-align:top;">:</td><td><div>381</div></td></tr><tr><td style="font-weight:bold;vertical-align:top;">http_content_type</td><td style="vertical-align:top;">:</td><td><div>multipart/form-data; boundary=----WebKitFormBoundaryWiOGy9UUeek5BX1C</div></td></tr><tr><td style="font-weight:bold;vertical-align:top;">http_cookie</td><td style="vertical-align:top;">:</td><td><div>session_id_evento=127.0.0.1-0bffe370-dce3-4021-9cac-a468bd6544dc; session_id_admin=127.0.0.1-4f0c44b5-9bb6-4bc6-b787-0b3841f541ab</div></td></tr><tr><td style="font-weight:bold;vertical-align:top;">http_host</td><td style="vertical-align:top;">:</td><td><div>127.0.0.1:8000</div></td></tr><tr><td style="font-weight:bold;vertical-align:top;">http_origin</td><td style="vertical-align:top;">:</td><td><div>http://127.0.0.1:8000</div></td></tr><tr><td style="font-weight:bold;vertical-align:top;">http_referer</td><td style="vertical-align:top;">:</td><td><div>http://127.0.0.1:8000/cadastro_Tags</div></td></tr><tr><td style="font-weight:bold;vertical-align:top;">http_sec_fetch_mode</td><td style="vertical-align:top;">:</td><td><div>navigate</div></td></tr><tr><td style="font-weight:bold;vertical-align:top;">http_sec_fetch_site</td><td style="vertical-align:top;">:</td><td><div>same-origin</div></td></tr><tr><td style="font-weight:bold;vertical-align:top;">http_sec_fetch_user</td><td style="vertical-align:top;">:</td><td><div>?1</div></td></tr><tr><td style="font-weight:bold;vertical-align:top;">http_upgrade_insecure_requests</td><td style="vertical-align:top;">:</td><td><div>1</div></td></tr><tr><td style="font-weight:bold;vertical-align:top;">http_user_agent</td><td style="vertical-align:top;">:</td><td><div>Mozilla/5.0 (Windows NT 10.0; Win64; x64) AppleWebKit/537.36 (KHTML, like Gecko) Chrome/79.0.3945.79 Safari/537.36</div></td></tr><tr><td style="font-weight:bold;vertical-align:top;">is_jython</td><td style="vertical-align:top;">:</td><td><div>False</div></td></tr><tr><td style="font-weight:bold;vertical-align:top;">is_py2</td><td style="vertical-align:top;">:</td><td><div>True</div></td></tr><tr><td style="font-weight:bold;vertical-align:top;">is_pypy</td><td style="vertical-align:top;">:</td><td><div>False</div></td></tr><tr><td style="font-weight:bold;vertical-align:top;">is_source</td><td style="vertical-align:top;">:</td><td><div>False</div></td></tr><tr><td style="font-weight:bold;vertical-align:top;">local_hosts</td><td style="vertical-align:top;">:</td><td><div><table><tr><td><div>DESKTOP-COI0HOF</div></td></tr><tr><td><div>2804:14d:1487:4254:f48b:b57:182d:ed3b</div></td></tr><tr><td><div>fe80::f48b:b57:182d:ed3b%3</div></td></tr><tr><td><div>::ffff:127.0.0.1</div></td></tr><tr><td><div>::1</div></td></tr><tr><td><div>192.168.0.12</div></td></tr><tr><td><div>2804:14d:1487:4254:b8a3:489b:8763:d7d8</div></td></tr><tr><td><div>127.0.0.1</div></td></tr><tr><td><div>2804:14d:1487:4254::2</div></td></tr></table></div></td></tr><tr><td style="font-weight:bold;vertical-align:top;">path_info</td><td style="vertical-align:top;">:</td><td><div>/cadastro_Tags</div></td></tr><tr><td style="font-weight:bold;vertical-align:top;">query_string</td><td style="vertical-align:top;">:</td><td><div></div></td></tr><tr><td style="font-weight:bold;vertical-align:top;">remote_addr</td><td style="vertical-align:top;">:</td><td><div>127.0.0.1</div></td></tr><tr><td style="font-weight:bold;vertical-align:top;">remote_port</td><td style="vertical-align:top;">:</td><td><div>51954</div></td></tr><tr><td style="font-weight:bold;vertical-align:top;">request_method</td><td style="vertical-align:top;">:</td><td><div>POST</div></td></tr><tr><td style="font-weight:bold;vertical-align:top;">request_uri</td><td style="vertical-align:top;">:</td><td><div>/evento/default/cadastro_Tags</div></td></tr><tr><td style="font-weight:bold;vertical-align:top;">script_name</td><td style="vertical-align:top;">:</td><td><div></div></td></tr><tr><td style="font-weight:bold;vertical-align:top;">server_name</td><td style="vertical-align:top;">:</td><td><div>DESKTOP-COI0HOF</div></td></tr><tr><td style="font-weight:bold;vertical-align:top;">server_port</td><td style="vertical-align:top;">:</td><td><div>8000</div></td></tr><tr><td style="font-weight:bold;vertical-align:top;">server_protocol</td><td style="vertical-align:top;">:</td><td><div>HTTP/1.1</div></td></tr><tr><td style="font-weight:bold;vertical-align:top;">server_software</td><td style="vertical-align:top;">:</td><td><div>Rocket 1.2.6</div></td></tr><tr><td style="font-weight:bold;vertical-align:top;">web2py_original_uri</td><td style="vertical-align:top;">:</td><td><div>/cadastro_Tags</div></td></tr><tr><td style="font-weight:bold;vertical-align:top;">web2py_path</td><td style="vertical-align:top;">:</td><td><div>C:\\Users\\Miguel\\Documents\\4 periodo\\IBD\\web2py_win\\web2py</div></td></tr><tr><td style="font-weight:bold;vertical-align:top;">web2py_version</td><td style="vertical-align:top;">:</td><td><div>2.18.5-stable+timestamp.2019.04.08.04.22.03</div></td></tr><tr><td style="font-weight:bold;vertical-align:top;">wsgi.errors</td><td style="vertical-align:top;">:</td><td><div>&lt;open file &#x27;&lt;stderr&gt;&#x27;, mode &#x27;w&#x27; at 0x0210D0D0&gt;</div></td></tr><tr><td style="font-weight:bold;vertical-align:top;">wsgi.file_wrapper</td><td style="vertical-align:top;">:</td><td><div>&lt;class wsgiref.util.FileWrapper at 0x03433AB0&gt;</div></td></tr><tr><td style="font-weight:bold;vertical-align:top;">wsgi.input</td><td style="vertical-align:top;">:</td><td><div>&lt;socket._fileobject object at 0x090C9D70&gt;</div></td></tr><tr><td style="font-weight:bold;vertical-align:top;">wsgi.multiprocess</td><td style="vertical-align:top;">:</td><td><div>False</div></td></tr><tr><td style="font-weight:bold;vertical-align:top;">wsgi.multithread</td><td style="vertical-align:top;">:</td><td><div>True</div></td></tr><tr><td style="font-weight:bold;vertical-align:top;">wsgi.run_once</td><td style="vertical-align:top;">:</td><td><div>False</div></td></tr><tr><td style="font-weight:bold;vertical-align:top;">wsgi.url_scheme</td><td style="vertical-align:top;">:</td><td><div>http</div></td></tr><tr><td style="font-weight:bold;vertical-align:top;">wsgi.version</td><td style="vertical-align:top;">:</td><td><div><table><tr><td><div>1</div></td></tr><tr><td><div>0</div></td></tr></table></div></td></tr><tr><td style="font-weight:bold;vertical-align:top;">wsgi_errors</td><td style="vertical-align:top;">:</td><td><div>&lt;open file &#x27;&lt;stderr&gt;&#x27;, mode &#x27;w&#x27; at 0x0210D0D0&gt;</div></td></tr><tr><td style="font-weight:bold;vertical-align:top;">wsgi_file_wrapper</td><td style="vertical-align:top;">:</td><td><div>&lt;class wsgiref.util.FileWrapper at 0x03433AB0&gt;</div></td></tr><tr><td style="font-weight:bold;vertical-align:top;">wsgi_input</td><td style="vertical-align:top;">:</td><td><div>&lt;socket._fileobject object at 0x090C9D70&gt;</div></td></tr><tr><td style="font-weight:bold;vertical-align:top;">wsgi_multiprocess</td><td style="vertical-align:top;">:</td><td><div>False</div></td></tr><tr><td style="font-weight:bold;vertical-align:top;">wsgi_multithread</td><td style="vertical-align:top;">:</td><td><div>True</div></td></tr><tr><td style="font-weight:bold;vertical-align:top;">wsgi_run_once</td><td style="vertical-align:top;">:</td><td><div>False</div></td></tr><tr><td style="font-weight:bold;vertical-align:top;">wsgi_url_scheme</td><td style="vertical-align:top;">:</td><td><div>http</div></td></tr><tr><td style="font-weight:bold;vertical-align:top;">wsgi_version</td><td style="vertical-align:top;">:</td><td><div><table><tr><td><div>1</div></td></tr><tr><td><div>0</div></td></tr></table></div></td></tr></table></div></td></tr><tr><td style="font-weight:bold;vertical-align:top;">extension</td><td style="vertical-align:top;">:</td><td><div>html</div></td></tr><tr><td style="font-weight:bold;vertical-align:top;">folder</td><td style="vertical-align:top;">:</td><td><div>C:\\Users\\Miguel\\Documents\\4 periodo\\IBD\\web2py_win\\web2py\\applications\\evento</div></td></tr><tr><td style="font-weight:bold;vertical-align:top;">function</td><td style="vertical-align:top;">:</td><td><div>cadastro_Tags</div></td></tr><tr><td style="font-weight:bold;vertical-align:top;">global_settings</td><td style="vertical-align:top;">:</td><td><div><table><tr><td style="font-weight:bold;vertical-align:top;">app_folders</td><td style="vertical-align:top;">:</td><td><div>set([&#x27;C:\\\\Users\\\\Miguel\\\\Documents\\\\4 periodo\\\\IBD\\\\web2py_win\\\\web2py\\\\applications\\\\evento&#x27;, &#x27;C:\\\\Users\\\\Miguel\\\\Documents\\\\4 periodo\\\\IBD\\\\web2py_win\\\\web2py\\\\applications\\\\admin&#x27;])</div></td></tr><tr><td style="font-weight:bold;vertical-align:top;">applications_parent</td><td style="vertical-align:top;">:</td><td><div>C:\\Users\\Miguel\\Documents\\4 periodo\\IBD\\web2py_win\\web2py</div></td></tr><tr><td style="font-weight:bold;vertical-align:top;">cmd_args</td><td style="vertical-align:top;">:</td><td><div><table></table></div></td></tr><tr><td style="font-weight:bold;vertical-align:top;">cmd_options</td><td style="vertical-align:top;">:</td><td><div>&lt;Values at 0x3207760: {&#x27;verbose&#x27;: False, &#x27;ip&#x27;: &#x27;127.0.0.1&#x27;, &#x27;debuglevel&#x27;: 30, &#x27;with_scheduler&#x27;: False, &#x27;shutdown_timeout&#x27;: 5, &#x27;taskbar&#x27;: False, &#x27;with_coverage&#x27;: False, &#x27;pid_filename&#x27;: &#x27;httpserver.pid&#x27;, &#x27;maxthreads&#x27;: None, &#x27;softcron&#x27;: False, &#x27;server_name&#x27;: &#x27;DESKTOP-COI0HOF&#x27;, &#x27;bpython&#x27;: False, &#x27;nogui&#x27;: False, &#x27;port&#x27;: 8000, &#x27;print_errors&#x27;: False, &#x27;extcron&#x27;: False, &#x27;runcron&#x27;: False, &#x27;run_system_tests&#x27;: False, &#x27;test&#x27;: None, &#x27;folder&#x27;: &#x27;C:\\\\Users\\\\Miguel\\\\Documents\\\\4 periodo\\\\IBD\\\\web2py_win\\\\web2py&#x27;, &#x27;config&#x27;: &#x27;&#x27;, &#x27;minthreads&#x27;: None, &#x27;shell&#x27;: None, &#x27;run&#x27;: &#x27;&#x27;, &#x27;log_filename&#x27;: &#x27;httpserver.log&#x27;, &#x27;profiler_dir&#x27;: None, &#x27;args&#x27;: [], &#x27;socket_timeout&#x27;: 5, &#x27;ssl_ca_certificate&#x27;: None, &#x27;scheduler&#x27;: None, &#x27;interfaces&#x27;: None, &#x27;ssl_private_key&#x27;: &#x27;&#x27;, &#x27;gae&#x27;: None, &#x27;password&#x27;: &#x27;******&#x27;, &#x27;request_queue_size&#x27;: 5, &#x27;ssl_certificate&#x27;: &#x27;&#x27;, &#x27;cronjob&#x27;: False, &#x27;numthreads&#x27;: None, &#x27;quiet&#x27;: False, &#x27;import_models&#x27;: False, &#x27;timeout&#x27;: 10, &#x27;plain&#x27;: False, &#x27;nobanner&#x27;: False}&gt;</div></td></tr><tr><td style="font-weight:bold;vertical-align:top;">db_sessions</td><td style="vertical-align:top;">:</td><td><div>set([])</div></td></tr><tr><td style="font-weight:bold;vertical-align:top;">debugging</td><td style="vertical-align:top;">:</td><td><div>False</div></td></tr><tr><td style="font-weight:bold;vertical-align:top;">gluon_parent</td><td style="vertical-align:top;">:</td><td><div>C:\\Users\\Miguel\\Documents\\4 periodo\\IBD\\web2py_win\\web2py</div></td></tr><tr><td style="font-weight:bold;vertical-align:top;">is_jython</td><td style="vertical-align:top;">:</td><td><div>False</div></td></tr><tr><td style="font-weight:bold;vertical-align:top;">is_py2</td><td style="vertical-align:top;">:</td><td><div>True</div></td></tr><tr><td style="font-weight:bold;vertical-align:top;">is_pypy</td><td style="vertical-align:top;">:</td><td><div>False</div></td></tr><tr><td style="font-weight:bold;vertical-align:top;">is_source</td><td style="vertical-align:top;">:</td><td><div>False</div></td></tr><tr><td style="font-weight:bold;vertical-align:top;">local_hosts</td><td style="vertical-align:top;">:</td><td><div><table><tr><td><div>DESKTOP-COI0HOF</div></td></tr><tr><td><div>2804:14d:1487:4254:f48b:b57:182d:ed3b</div></td></tr><tr><td><div>fe80::f48b:b57:182d:ed3b%3</div></td></tr><tr><td><div>::ffff:127.0.0.1</div></td></tr><tr><td><div>::1</div></td></tr><tr><td><div>192.168.0.12</div></td></tr><tr><td><div>2804:14d:1487:4254:b8a3:489b:8763:d7d8</div></td></tr><tr><td><div>127.0.0.1</div></td></tr><tr><td><div>2804:14d:1487:4254::2</div></td></tr></table></div></td></tr><tr><td style="font-weight:bold;vertical-align:top;">web2py_version</td><td style="vertical-align:top;">:</td><td><div>2.18.5-stable+timestamp.2019.04.08.04.22.03</div></td></tr></table></div></td></tr><tr><td style="font-weight:bold;vertical-align:top;">is_https</td><td style="vertical-align:top;">:</td><td><div>False</div></td></tr><tr><td style="font-weight:bold;vertical-align:top;">is_local</td><td style="vertical-align:top;">:</td><td><div>True</div></td></tr><tr><td style="font-weight:bold;vertical-align:top;">is_restful</td><td style="vertical-align:top;">:</td><td><div>False</div></td></tr><tr><td style="font-weight:bold;vertical-align:top;">is_scheduler</td><td style="vertical-align:top;">:</td><td><div>False</div></td></tr><tr><td style="font-weight:bold;vertical-align:top;">is_shell</td><td style="vertical-align:top;">:</td><td><div>False</div></td></tr><tr><td style="font-weight:bold;vertical-align:top;">method</td><td style="vertical-align:top;">:</td><td><div>POST</div></td></tr><tr><td style="font-weight:bold;vertical-align:top;">now</td><td style="vertical-align:top;">:</td><td><div>datetime.datetime(2019, 12, 17, 11, 14, 0, 374000)</div></td></tr><tr><td style="font-weight:bold;vertical-align:top;">url</td><td style="vertical-align:top;">:</td><td><div>/cadastro_Tags</div></td></tr><tr><td style="font-weight:bold;vertical-align:top;">utcnow</td><td style="vertical-align:top;">:</td><td><div>datetime.datetime(2019, 12, 17, 15, 14, 0, 374000)</div></td></tr><tr><td style="font-weight:bold;vertical-align:top;">wsgi</td><td style="vertical-align:top;">:</td><td><div>&lt;gluon.main.LazyWSGI object at 0x043C0A70&gt;</div></td></tr></table></div>'
tRp60
sS'frames'
p61
(lp62
(dp63
S'file'
p64
S'C:\\Users\\Miguel\\Documents\\4 periodo\\IBD\\web2py_win\\web2py\\gluon\\restricted.py'
p65
sS'dump'
p66
(dp67
S'environment'
p68
S"{'A': <class 'gluon.html.A'>, 'ANY_OF': <class 'pydal.validators.ANY_OF'>, 'ASSIGNJS': <function ASSIGNJS>, 'AppConfig': <function AppConfig>, 'Auth': <class 'gluon.tools.Auth'>, 'B': <class 'gluon.html.B'>, 'BEAUTIFY': <class 'gluon.html.BEAUTIFY'>, 'BODY': <class 'gluon.html.BODY'>, 'BR': <class 'gluon.html.BR'>, 'BUTTON': <class 'gluon.html.BUTTON'>, ...}"
p69
sS'ccode'
p70
S'<code object <module> at 0936A338, file "C:\\User...pplications\\evento\\models\\validators.py", line 3>'
p71
ssS'lnum'
p72
I219
sS'lines'
p73
(dp74
I214
S'    if environment is None:'
p75
sI215
S'        environment = {}'
p76
sI216
S"    environment['__file__'] = layer"
p77
sI217
S"    environment['__name__'] = '__restricted__'"
p78
sI218
S'    try:'
p79
sI219
S'        exec(ccode, environment)'
p80
sI220
S'    except HTTP:'
p81
sI221
S'        raise'
p82
sI222
S'    except RestrictedError:'
p83
sI223
S'        # do not encapsulate (obfuscate) the original RestrictedError'
p84
ssS'call'
p85
S'(ccode=<code object <module> at 0936A338, file "C:\\User...pplications\\evento\\models\\validators.py", line 3>, environment={\'A\': <class \'gluon.html.A\'>, \'ANY_OF\': <class \'pydal.validators.ANY_OF\'>, \'ASSIGNJS\': <function ASSIGNJS>, \'AppConfig\': <function AppConfig>, \'Auth\': <class \'gluon.tools.Auth\'>, \'B\': <class \'gluon.html.B\'>, \'BEAUTIFY\': <class \'gluon.html.BEAUTIFY\'>, \'BODY\': <class \'gluon.html.BODY\'>, \'BR\': <class \'gluon.html.BR\'>, \'BUTTON\': <class \'gluon.html.BUTTON\'>, ...}, layer=r\'C:\\Users\\Miguel\\Documents\\4 periodo\\IBD\\web2py_win\\web2py\\applications\\evento\\models\\validators.py\', scode=<code object <module> at 0936A338, file "C:\\User...pplications\\evento\\models\\validators.py", line 3>)'
p86
sS'func'
p87
S'restricted'
p88
sa(dp89
g64
S'C:\\Users\\Miguel\\Documents\\4 periodo\\IBD\\web2py_win\\web2py\\applications\\evento\\models\\validators.py'
p90
sg66
(dp91
S'db.Tag_Evento'
p92
S'<Table Tag_Evento (id, tag_id, eve_id)>'
p93
sS'IS_NULL_OR'
p94
S"<class 'pydal.validators.IS_EMPTY_OR'>"
p95
sS'db.Tag_Evento.tag'
p96
S'undefined'
p97
sS'db'
p98
S'<DAL uri="sqlite://storage.sqlite">'
p99
sS'IS_EMPTY'
p100
g97
ssg72
I57
sg73
(dp101
I48
S'db.Org_Est.org_id.requires = IS_IN_DB(db,"Organizacao.id")'
p102
sI49
S'db.Org_Est.est_id.requires = IS_IN_DB(db,"Estabelecimento.id")'
p103
sI50
S'db.Org_Est.readable = False'
p104
sI51
S''
sI52
S'db.Tag.tag.requires = [IS_NOT_EMPTY(),IS_NOT_IN_DB(db,"Tag.tag")]'
p105
sI53
S'db.Tag.id.readable = False'
p106
sI54
S''
sI55
S'db.Tag_Evento.eve_id.requires = IS_IN_DB(db,"Evento.id","%(titulo)s")'
p107
sI56
S'db.Tag_Evento.tag_id.requires = IS_IN_DB(db,"Tag.id","%(tag)s")'
p108
sI57
S'db.Tag_Evento.tag.requires = IS_NULL_OR(IS_EMPTY())'
p109
ssg85
S'()'
p110
sg87
S'<module>'
p111
sasS'pyver'
p112
S'Python 2.7.9: C:\\Users\\Miguel\\Documents\\4 periodo\\IBD\\web2py_win\\web2py\\web2py.exe (prefix: )'
p113
sS'session'
p114
g59
(S'st\n\x00\x00<div><table><tr><td style="font-weight:bold;vertical-align:top;">auth</td><td style="vertical-align:top;">:</td><td><div><table><tr><td style="font-weight:bold;vertical-align:top;">expiration</td><td style="vertical-align:top;">:</td><td><div>3600</div></td></tr><tr><td style="font-weight:bold;vertical-align:top;">hmac_key</td><td style="vertical-align:top;">:</td><td><div>153ac293-42fd-41e0-b9f6-77d97fa8eb14</div></td></tr><tr><td style="font-weight:bold;vertical-align:top;">last_visit</td><td style="vertical-align:top;">:</td><td><div>datetime.datetime(2019, 12, 17, 11, 14, 0, 374000)</div></td></tr><tr><td style="font-weight:bold;vertical-align:top;">remember_me</td><td style="vertical-align:top;">:</td><td><div>False</div></td></tr><tr><td style="font-weight:bold;vertical-align:top;">user</td><td style="vertical-align:top;">:</td><td><div><table><tr><td style="font-weight:bold;vertical-align:top;">email</td><td style="vertical-align:top;">:</td><td><div>eventos@gmail.com</div></td></tr><tr><td style="font-weight:bold;vertical-align:top;">first_name</td><td style="vertical-align:top;">:</td><td><div>Eventos</div></td></tr><tr><td style="font-weight:bold;vertical-align:top;">id</td><td style="vertical-align:top;">:</td><td><div>2L</div></td></tr><tr><td style="font-weight:bold;vertical-align:top;">img</td><td style="vertical-align:top;">:</td><td><div></div></td></tr><tr><td style="font-weight:bold;vertical-align:top;">last_name</td><td style="vertical-align:top;">:</td><td><div>LTDA</div></td></tr><tr><td style="font-weight:bold;vertical-align:top;">numero</td><td style="vertical-align:top;">:</td><td><div>91214124214</div></td></tr><tr><td style="font-weight:bold;vertical-align:top;">registration_id</td><td style="vertical-align:top;">:</td><td><div></div></td></tr><tr><td style="font-weight:bold;vertical-align:top;">registration_key</td><td style="vertical-align:top;">:</td><td><div></div></td></tr><tr><td style="font-weight:bold;vertical-align:top;">reset_password_key</td><td style="vertical-align:top;">:</td><td><div></div></td></tr></table></div></td></tr><tr><td style="font-weight:bold;vertical-align:top;">user_groups</td><td style="vertical-align:top;">:</td><td><div><table><tr><td style="font-weight:bold;vertical-align:top;">3</td><td style="vertical-align:top;">:</td><td><div>Organizacao</div></td></tr><tr><td style="font-weight:bold;vertical-align:top;">5</td><td style="vertical-align:top;">:</td><td><div>user_2</div></td></tr></table></div></td></tr></table></div></td></tr><tr><td style="font-weight:bold;vertical-align:top;">flash</td><td style="vertical-align:top;">:</td><td><div>None</div></td></tr></table></div>'
tRp115
sS'etype'
p116
S"<type 'exceptions.NameError'>"
p117
sS'date'
p118
S'Tue Dec 17 11:14:00 2019'
p119
sS'response'
p120
g59
(S's\x81$\x00\x00<div><table><tr><td style="font-weight:bold;vertical-align:top;">body</td><td style="vertical-align:top;">:</td><td><div>&lt;cStringIO.StringO object at 0x043C0E80&gt;</div></td></tr><tr><td style="font-weight:bold;vertical-align:top;">cookies</td><td style="vertical-align:top;">:</td><td><div><table><tr><td style="font-weight:bold;vertical-align:top;">session_id_evento</td><td style="vertical-align:top;">:</td><td><div>127.0.0.1-0bffe370-dce3-4021-9cac-a468bd6544dc<table><tr><td style="font-weight:bold;vertical-align:top;">comment</td><td style="vertical-align:top;">:</td><td><div></div></td></tr><tr><td style="font-weight:bold;vertical-align:top;">domain</td><td style="vertical-align:top;">:</td><td><div></div></td></tr><tr><td style="font-weight:bold;vertical-align:top;">expires</td><td style="vertical-align:top;">:</td><td><div></div></td></tr><tr><td style="font-weight:bold;vertical-align:top;">httponly</td><td style="vertical-align:top;">:</td><td><div></div></td></tr><tr><td style="font-weight:bold;vertical-align:top;">max-age</td><td style="vertical-align:top;">:</td><td><div></div></td></tr><tr><td style="font-weight:bold;vertical-align:top;">path</td><td style="vertical-align:top;">:</td><td><div>/</div></td></tr><tr><td style="font-weight:bold;vertical-align:top;">samesite</td><td style="vertical-align:top;">:</td><td><div></div></td></tr><tr><td style="font-weight:bold;vertical-align:top;">secure</td><td style="vertical-align:top;">:</td><td><div></div></td></tr><tr><td style="font-weight:bold;vertical-align:top;">version</td><td style="vertical-align:top;">:</td><td><div></div></td></tr></table></div></td></tr></table></div></td></tr><tr><td style="font-weight:bold;vertical-align:top;">delimiters</td><td style="vertical-align:top;">:</td><td><div><table><tr><td><div>{{</div></td></tr><tr><td><div>}}</div></td></tr></table></div></td></tr><tr><td style="font-weight:bold;vertical-align:top;">files</td><td style="vertical-align:top;">:</td><td><div><table></table></div></td></tr><tr><td style="font-weight:bold;vertical-align:top;">flash</td><td style="vertical-align:top;">:</td><td><div></div></td></tr><tr><td style="font-weight:bold;vertical-align:top;">form_label_separator</td><td style="vertical-align:top;">:</td><td><div></div></td></tr><tr><td style="font-weight:bold;vertical-align:top;">formstyle</td><td style="vertical-align:top;">:</td><td><div>bootstrap4_inline</div></td></tr><tr><td style="font-weight:bold;vertical-align:top;">generic_patterns</td><td style="vertical-align:top;">:</td><td><div><table><tr><td><div>*</div></td></tr></table></div></td></tr><tr><td style="font-weight:bold;vertical-align:top;">google_analytics_id</td><td style="vertical-align:top;">:</td><td><div>None</div></td></tr><tr><td style="font-weight:bold;vertical-align:top;">headers</td><td style="vertical-align:top;">:</td><td><div><table><tr><td style="font-weight:bold;vertical-align:top;">X-Powered-By</td><td style="vertical-align:top;">:</td><td><div>web2py</div></td></tr></table></div></td></tr><tr><td style="font-weight:bold;vertical-align:top;">menu</td><td style="vertical-align:top;">:</td><td><div><table><tr><td><div><table><tr><td><div>Home</div></td></tr><tr><td><div>False</div></td></tr><tr><td><div>/</div></td></tr><tr><td><div><table></table></div></td></tr></table></div></td></tr><tr><td><div><table><tr><td><div>Meus Eventos</div></td></tr><tr><td><div>False</div></td></tr><tr><td><div>/meus_eventos</div></td></tr><tr><td><div><table></table></div></td></tr></table></div></td></tr><tr><td><div><table><tr><td><div>Criar Evento</div></td></tr><tr><td><div>False</div></td></tr><tr><td><div>/cadastro_evento</div></td></tr><tr><td><div><table></table></div></td></tr></table></div></td></tr><tr><td><div><table><tr><td><div>Meus Perfil</div></td></tr><tr><td><div>False</div></td></tr><tr><td><div>/cadastro_Tags</div></td></tr><tr><td><div><table><tr><td><div><table><tr><td><div>Usuario</div></td></tr><tr><td><div>False</div></td></tr><tr><td><div>/default/user/profile</div></td></tr><tr><td><div>[]</div></td></tr></table></div></td></tr><tr><td><div><table><tr><td><div>Cliete</div></td></tr><tr><td><div>False</div></td></tr><tr><td><div>/cliente</div></td></tr><tr><td><div>[]</div></td></tr></table></div></td></tr><tr><td><div><table><tr><td><div>Organizacao</div></td></tr><tr><td><div>False</div></td></tr><tr><td><div>/organizacao</div></td></tr><tr><td><div>[]</div></td></tr></table></div></td></tr></table></div></td></tr></table></div></td></tr><tr><td><div><table><tr><td><div>Relatorios</div></td></tr><tr><td><div>False</div></td></tr><tr><td><div>/cadastro_Tags</div></td></tr><tr><td><div><table><tr><td><div><table><tr><td><div>Relatorio Tags</div></td></tr><tr><td><div>False</div></td></tr><tr><td><div>/tag</div></td></tr><tr><td><div>[]</div></td></tr></table></div></td></tr><tr><td><div><table><tr><td><div>Relatorio Clientes</div></td></tr><tr><td><div>False</div></td></tr><tr><td><div>/cliente</div></td></tr><tr><td><div>[]</div></td></tr></table></div></td></tr><tr><td><div><table><tr><td><div>Relatorio Intervalos</div></td></tr><tr><td><div>False</div></td></tr><tr><td><div>/intevalo</div></td></tr><tr><td><div>[]</div></td></tr></table></div></td></tr></table></div></td></tr></table></div></td></tr></table></div></td></tr><tr><td style="font-weight:bold;vertical-align:top;">meta</td><td style="vertical-align:top;">:</td><td><div><table><tr><td style="font-weight:bold;vertical-align:top;">author</td><td style="vertical-align:top;">:</td><td><div>Your Name &lt;you@example.com&gt;</div></td></tr><tr><td style="font-weight:bold;vertical-align:top;">description</td><td style="vertical-align:top;">:</td><td><div>a cool new app</div></td></tr><tr><td style="font-weight:bold;vertical-align:top;">generator</td><td style="vertical-align:top;">:</td><td><div>Web2py Web Framework</div></td></tr><tr><td style="font-weight:bold;vertical-align:top;">keywords</td><td style="vertical-align:top;">:</td><td><div><table><tr><td><div>web2py</div></td></tr><tr><td><div>python</div></td></tr><tr><td><div>framework</div></td></tr></table></div></td></tr></table></div></td></tr><tr><td style="font-weight:bold;vertical-align:top;">models_to_run</td><td style="vertical-align:top;">:</td><td><div><table><tr><td><div>^\\w+\\.py$</div></td></tr><tr><td><div>^default/\\w+\\.py$</div></td></tr><tr><td><div>^default/cadastro_Tags/\\w+\\.py$</div></td></tr></table></div></td></tr><tr><td style="font-weight:bold;vertical-align:top;">postprocessing</td><td style="vertical-align:top;">:</td><td><div><table></table></div></td></tr><tr><td style="font-weight:bold;vertical-align:top;">session_client</td><td style="vertical-align:top;">:</td><td><div>127.0.0.1</div></td></tr><tr><td style="font-weight:bold;vertical-align:top;">session_cookie_compression_level</td><td style="vertical-align:top;">:</td><td><div>None</div></td></tr><tr><td style="font-weight:bold;vertical-align:top;">session_cookie_expires</td><td style="vertical-align:top;">:</td><td><div>None</div></td></tr><tr><td style="font-weight:bold;vertical-align:top;">session_data_name</td><td style="vertical-align:top;">:</td><td><div>session_data_evento</div></td></tr><tr><td style="font-weight:bold;vertical-align:top;">session_file</td><td style="vertical-align:top;">:</td><td><div>&lt;open file &#x27;C:\\\\Users\\\\Miguel\\\\Documents\\\\4 periodo\\\\IBD\\\\web2py_win\\\\web2py\\\\applications\\\\evento\\\\sessions\\\\178\\\\126\\\\127.0.0.1-0bffe370-dce3-4021-9cac-a468bd6544dc&#x27;, mode &#x27;rb+&#x27; at 0x0454F808&gt;</div></td></tr><tr><td style="font-weight:bold;vertical-align:top;">session_filename</td><td style="vertical-align:top;">:</td><td><div>C:\\Users\\Miguel\\Documents\\4 periodo\\IBD\\web2py_win\\web2py\\applications\\evento\\sessions\\127.0.0.1-0bffe370-dce3-4021-9cac-a468bd6544dc</div></td></tr><tr><td style="font-weight:bold;vertical-align:top;">session_hash</td><td style="vertical-align:top;">:</td><td><div>799b19ac5332b62ccc35549c4e490ec3</div></td></tr><tr><td style="font-weight:bold;vertical-align:top;">session_id</td><td style="vertical-align:top;">:</td><td><div>127.0.0.1-0bffe370-dce3-4021-9cac-a468bd6544dc</div></td></tr><tr><td style="font-weight:bold;vertical-align:top;">session_id_name</td><td style="vertical-align:top;">:</td><td><div>session_id_evento</div></td></tr><tr><td style="font-weight:bold;vertical-align:top;">session_locked</td><td style="vertical-align:top;">:</td><td><div>True</div></td></tr><tr><td style="font-weight:bold;vertical-align:top;">session_masterapp</td><td style="vertical-align:top;">:</td><td><div>evento</div></td></tr><tr><td style="font-weight:bold;vertical-align:top;">session_new</td><td style="vertical-align:top;">:</td><td><div>False</div></td></tr><tr><td style="font-weight:bold;vertical-align:top;">session_storage_type</td><td style="vertical-align:top;">:</td><td><div>file</div></td></tr><tr><td style="font-weight:bold;vertical-align:top;">show_toolbar</td><td style="vertical-align:top;">:</td><td><div>False</div></td></tr><tr><td style="font-weight:bold;vertical-align:top;">status</td><td style="vertical-align:top;">:</td><td><div>200</div></td></tr><tr><td style="font-weight:bold;vertical-align:top;">view</td><td style="vertical-align:top;">:</td><td><div>default/cadastro_Tags.html</div></td></tr></table></div>'
tRp121
sS'locals'
p122
(dp123
S'PY2'
p124
S'True'
p125
sS'OBJECT'
p126
S"<class 'gluon.html.OBJECT'>"
p127
sS'SQLDB'
p128
S"<class 'pydal.base.DAL'>"
p129
sg114
S"<Storage {'flash': None, '_formkey[Lote/create]'...5de15', 'd062964d-8390-4c5f-86a1-ae9c6cc4f021']}>"
p130
sS'LINK'
p131
S"<class 'gluon.html.LINK'>"
p132
sS'BR'
p133
S"<class 'gluon.html.BR'>"
p134
sS'local_import'
p135
S'<function <lambda>>'
p136
sS'OPTGROUP'
p137
S"<class 'gluon.html.OPTGROUP'>"
p138
sS'LI'
p139
S"<class 'gluon.html.LI'>"
p140
sS'PRE'
p141
S"<class 'gluon.html.PRE'>"
p142
sS'IS_INT_IN_RANGE'
p143
S"<class 'pydal.validators.IS_INT_IN_RANGE'>"
p144
sS'to_bytes'
p145
S'<function to_bytes>'
p146
sS'IS_LOWER'
p147
S"<class 'pydal.validators.IS_LOWER'>"
p148
sS'IS_STRONG'
p149
S"<class 'pydal.validators.IS_STRONG'>"
p150
sS'cache'
p151
S'<gluon.cache.Cache object>'
p152
sS'IS_IN_DB'
p153
S"<class 'pydal.validators.IS_IN_DB'>"
p154
sS'TAG'
p155
S'<gluon.html.__TAG__ object>'
p156
sS'SQLField'
p157
S"<class 'pydal.objects.Field'>"
p158
sS'mail'
p159
S'<gluon.tools.Mail object>'
p160
sS'BODY'
p161
S"<class 'gluon.html.BODY'>"
p162
sS'IS_DATE_IN_RANGE'
p163
S"<class 'pydal.validators.IS_DATE_IN_RANGE'>"
p164
sS'TH'
p165
S"<class 'gluon.html.TH'>"
p166
sS'URL'
p167
S'<function URL>'
p168
sS'__file__'
p169
S"r'C:\\Users\\Miguel\\Documents\\4 periodo\\IBD\\web2py_win\\web2py\\applications\\evento\\models\\validators.py'"
p170
sS'db'
p171
S'<DAL uri="sqlite://storage.sqlite">'
p172
sS'auth'
p173
S'<gluon.tools.Auth object>'
p174
sS'P'
S"<class 'gluon.html.P'>"
p175
sS'TFOOT'
p176
S"<class 'gluon.html.TFOOT'>"
p177
sS'iteritems'
p178
S'<function <lambda>>'
p179
sS'XHTML'
p180
S"<class 'gluon.html.XHTML'>"
p181
sS'ON'
p182
g125
sS'OL'
p183
S"<class 'gluon.html.OL'>"
p184
sS'TEXTAREA'
p185
S"<class 'gluon.html.TEXTAREA'>"
p186
sS'MENU'
p187
S"<class 'gluon.html.MENU'>"
p188
sS'LOAD'
p189
S'<function LOAD>'
p190
sS'CODE'
p191
S"<class 'gluon.html.CODE'>"
p192
sS'HTTP'
p193
S"<class 'gluon.http.HTTP'>"
p194
sS'HR'
p195
S"<class 'gluon.html.HR'>"
p196
sS'IS_DATETIME'
p197
S"<class 'pydal.validators.IS_DATETIME'>"
p198
sS'reduce'
p199
S'<built-in function reduce>'
p200
sg58
S"<Storage {'_vars': None, 'function': 'cadastro_T...web2py\\\\applications\\\\evento', 'method': 'POST'}>"
p201
sS'LABEL'
p202
S"<class 'gluon.html.LABEL'>"
p203
sS'CLEANUP'
p204
S"<class 'pydal.validators.CLEANUP'>"
p205
sS'SELECT'
p206
S"<class 'gluon.html.SELECT'>"
p207
sS'CENTER'
p208
S"<class 'gluon.html.CENTER'>"
p209
sS'Auth'
p210
S"<class 'gluon.tools.Auth'>"
p211
sS'__builtins__'
p212
S"{'ArithmeticError': <type 'exceptions.ArithmeticError'>, 'AssertionError': <type 'exceptions.AssertionError'>, 'AttributeError': <type 'exceptions.AttributeError'>, 'BaseException': <type 'exceptions.BaseException'>, 'BufferError': <type 'exceptions.BufferError'>, 'BytesWarning': <type 'exceptions.BytesWarning'>, 'DeprecationWarning': <type 'exceptions.DeprecationWarning'>, 'EOFError': <type 'exceptions.EOFError'>, 'Ellipsis': Ellipsis, 'EnvironmentError': <type 'exceptions.EnvironmentError'>, ...}"
p213
sS'HTML'
p214
S"<class 'gluon.html.HTML'>"
p215
sS'SQLFORM'
p216
S"<class 'gluon.sqlhtml.SQLFORM'>"
p217
sS'EM'
p218
S"<class 'gluon.html.EM'>"
p219
sS'redirect'
p220
S'<function redirect>'
p221
sS'FIELDSET'
p222
S"<class 'gluon.html.FIELDSET'>"
p223
sS'IS_EQUAL_TO'
p224
S"<class 'pydal.validators.IS_EQUAL_TO'>"
p225
sS'HEAD'
p226
S"<class 'gluon.html.HEAD'>"
p227
sS'embed64'
p228
S'<function embed64>'
p229
sS'IS_LIST_OF'
p230
S"<class 'pydal.validators.IS_LIST_OF'>"
p231
sS'__name__'
p232
S"'__restricted__'"
p233
sS'EMBED'
p234
S"<class 'gluon.html.EMBED'>"
p235
sS'configuration'
p236
S"{'host': {'names': 'localhost:*, 127.0.0.1:*, *:...': 'sqlite://storage.sqlite', 'pool_size': '10'}}"
p237
sS'FORM'
p238
S"<class 'gluon.html.FORM'>"
p239
sS'H2'
p240
S"<class 'gluon.html.H2'>"
p241
sS'H3'
p242
S"<class 'gluon.html.H3'>"
p243
sS'AppConfig'
p244
S'<function AppConfig>'
p245
sS'H1'
p246
S"<class 'gluon.html.H1'>"
p247
sS'H6'
p248
S"<class 'gluon.html.H6'>"
p249
sS'H4'
p250
S"<class 'gluon.html.H4'>"
p251
sS'H5'
p252
S"<class 'gluon.html.H5'>"
p253
sS'UL'
p254
S"<class 'gluon.html.UL'>"
p255
sS'IS_UPPER'
p256
S"<class 'pydal.validators.IS_UPPER'>"
p257
sS'xmlescape'
p258
S'<function xmlescape>'
p259
sS'IS_TIME'
p260
S"<class 'pydal.validators.IS_TIME'>"
p261
sS'OPTION'
p262
S"<class 'gluon.html.OPTION'>"
p263
sS'TITLE'
p264
S"<class 'gluon.html.TITLE'>"
p265
sS'CRYPT'
p266
S"<class 'pydal.validators.CRYPT'>"
p267
sS'IS_EMPTY_OR'
p268
S"<class 'pydal.validators.IS_EMPTY_OR'>"
p269
sS'MARKMIN'
p270
S"<class 'gluon.html.MARKMIN'>"
p271
sS'INPUT'
p272
S"<class 'gluon.html.INPUT'>"
p273
sS'STRONG'
p274
S"<class 'gluon.html.STRONG'>"
p275
sS'COL'
p276
S"<class 'gluon.html.COL'>"
p277
sS'SCRIPT'
p278
S"<class 'gluon.html.SCRIPT'>"
p279
sS'TABLE'
p280
S"<class 'gluon.html.TABLE'>"
p281
sS'IS_IPV4'
p282
S"<class 'pydal.validators.IS_IPV4'>"
p283
sS'IS_LENGTH'
p284
S"<class 'pydal.validators.IS_LENGTH'>"
p285
sS'IS_IPV6'
p286
S"<class 'pydal.validators.IS_IPV6'>"
p287
sS'XML'
p288
S"<class 'gluon.html.XML'>"
p289
sS'B'
S"<class 'gluon.html.B'>"
p290
sS'IMG'
p291
S"<class 'gluon.html.IMG'>"
p292
sS'SQLTABLE'
p293
S"<class 'gluon.sqlhtml.SQLTABLE'>"
p294
sS'IS_MATCH'
p295
S"<class 'pydal.validators.IS_MATCH'>"
p296
sS'IS_ALPHANUMERIC'
p297
S"<class 'pydal.validators.IS_ALPHANUMERIC'>"
p298
sS'SPAN'
p299
S"<class 'gluon.html.SPAN'>"
p300
sS'IS_JSON'
p301
S"<class 'pydal.validators.IS_JSON'>"
p302
sS'IS_IPADDRESS'
p303
S"<class 'pydal.validators.IS_IPADDRESS'>"
p304
sS'IS_SLUG'
p305
S"<class 'pydal.validators.IS_SLUG'>"
p306
sS'BEAUTIFY'
p307
S"<class 'gluon.html.BEAUTIFY'>"
p308
sS'META'
p309
S"<class 'gluon.html.META'>"
p310
sS'BUTTON'
p311
S"<class 'gluon.html.BUTTON'>"
p312
sS'IS_DATE'
p313
S"<class 'pydal.validators.IS_DATE'>"
p314
sS'IS_EMAIL'
p315
S"<class 'pydal.validators.IS_EMAIL'>"
p316
sS'IS_NOT_EMPTY'
p317
S"<class 'pydal.validators.IS_NOT_EMPTY'>"
p318
sS'xrange'
p319
S"<type 'xrange'>"
p320
sS'TBODY'
p321
S"<class 'gluon.html.TBODY'>"
p322
sS'CAT'
p323
S"<class 'gluon.html.CAT'>"
p324
sS'Field'
p325
S"<class 'pydal.objects.Field'>"
p326
sS'IS_LIST_OF_EMAILS'
p327
S"<class 'pydal.validators.IS_LIST_OF_EMAILS'>"
p328
sS'DIV'
p329
S"<class 'gluon.html.DIV'>"
p330
sS'LEGEND'
p331
S"<class 'gluon.html.LEGEND'>"
p332
sS'to_native'
p333
S'<function to_native>'
p334
sS'COLGROUP'
p335
S"<class 'gluon.html.COLGROUP'>"
p336
sS'DAL'
p337
S"<class 'pydal.base.DAL'>"
p338
sS'ASSIGNJS'
p339
S'<function ASSIGNJS>'
p340
sS'TR'
p341
S"<class 'gluon.html.TR'>"
p342
sS'__package__'
p343
S'None'
p344
sS'IFRAME'
p345
S"<class 'gluon.html.IFRAME'>"
p346
sS'TD'
p347
S"<class 'gluon.html.TD'>"
p348
sS'IS_URL'
p349
S"<class 'pydal.validators.IS_URL'>"
p350
sS'A'
S"<class 'gluon.html.A'>"
p351
sS'STYLE'
p352
S"<class 'gluon.html.STYLE'>"
p353
sS'IS_DATETIME_IN_RANGE'
p354
S"<class 'pydal.validators.IS_DATETIME_IN_RANGE'>"
p355
sS'IS_IMAGE'
p356
S"<class 'pydal.validators.IS_IMAGE'>"
p357
sS'I'
S"<class 'gluon.html.I'>"
p358
sS'IS_NOT_IN_DB'
p359
S"<class 'pydal.validators.IS_NOT_IN_DB'>"
p360
sS'IS_FILE'
p361
S"<class 'pydal.validators.IS_FILE'>"
p362
sg120
S"<Storage {'body': <cStringIO.StringO object at 0...0407C3F0>, 'view': 'default/cadastro_Tags.html'}>"
p363
sS'THEAD'
p364
S"<class 'gluon.html.THEAD'>"
p365
sS'ANY_OF'
p366
S"<class 'pydal.validators.ANY_OF'>"
p367
sS'IS_NULL_OR'
p368
S"<class 'pydal.validators.IS_EMPTY_OR'>"
p369
sS'IS_FLOAT_IN_RANGE'
p370
S"<class 'pydal.validators.IS_FLOAT_IN_RANGE'>"
p371
sS'IS_EXPR'
p372
S"<class 'pydal.validators.IS_EXPR'>"
p373
sS'IS_IN_SET'
p374
S"<class 'pydal.validators.IS_IN_SET'>"
p375
sS'IS_UPLOAD_FILENAME'
p376
S"<class 'pydal.validators.IS_UPLOAD_FILENAME'>"
p377
sS'IS_DECIMAL_IN_RANGE'
p378
S"<class 'pydal.validators.IS_DECIMAL_IN_RANGE'>"
p379
sS'TT'
p380
S"<class 'gluon.html.TT'>"
p381
sS'T'
S'<gluon.languages.TranslatorFactory object>'
p382
sssS'traceback'
p383
S'Traceback (most recent call last):\n  File "C:\\Users\\Miguel\\Documents\\4 periodo\\IBD\\web2py_win\\web2py\\gluon\\restricted.py", line 219, in restricted\n    exec(ccode, environment)\n  File "C:\\Users\\Miguel\\Documents\\4 periodo\\IBD\\web2py_win\\web2py\\applications\\evento\\models\\validators.py", line 57, in <module>\n    db.Tag_Evento.tag.requires = IS_NULL_OR(IS_EMPTY())\nNameError: name \'IS_EMPTY\' is not defined\n'
p384
s.